Component: ARM Compiler 5.06 update 3 (build 300) Tool: armlink [4d35c9]

==============================================================================

Section Cross References

    main.o(i._Z13jsPrsdAndRlsd7btnId_t) refers to assert.o(i.mbed_assert_internal) for mbed_assert_internal
    main.o(i._Z13jsPrsdAndRlsd7btnId_t) refers to main.o(.bss) for jsBtns
    main.o(i._Z13jsPrsdAndRlsd7btnId_t) refers to main.o(.conststring) for .conststring
    main.o(i._Z13jsPrsdAndRlsd7btnId_t) refers to main.o(.data) for savedState
    main.o(i._Z19swap_double_buffersv) refers to main.o(.data) for screen
    main.o(i._Z21init_double_bufferingv) refers to main.o(.data) for screen
    main.o(i._Z7accInitR7MMA7455) refers to mma7455.o(i._ZN7MMA74557setModeENS_4ModeE) for MMA7455::setMode(MMA7455::Mode)
    main.o(i._Z7accInitR7MMA7455) refers to mma7455.o(i._ZN7MMA74559calibrateEv) for MMA7455::calibrate()
    main.o(i.__sti___8_main_cpp_Eth) refers to ethernet.o(i._ZN4mbed8EthernetC1Ev) for mbed::Ethernet::Ethernet()
    main.o(i.__sti___8_main_cpp_Eth) refers to aeabi_atexit.o(.text) for __aeabi_atexit
    main.o(i.__sti___8_main_cpp_Eth) refers to display.o(i._ZN7Display10theDisplayEv) for Display::theDisplay()
    main.o(i.__sti___8_main_cpp_Eth) refers to game.o(i._ZN4GameC1EP7Display) for Game::Game(Display*)
    main.o(i.__sti___8_main_cpp_Eth) refers to rt_memclr_w.o(.text) for __aeabi_memclr4
    main.o(i.__sti___8_main_cpp_Eth) refers to gpio.o(i.gpio_init_out) for gpio_init_out
    main.o(i.__sti___8_main_cpp_Eth) refers to main.o(i._ZN4mbed9DigitalInC1E7PinName) for mbed::DigitalIn::DigitalIn(PinName)
    main.o(i.__sti___8_main_cpp_Eth) refers to analogin_api.o(i.analogin_init) for analogin_init
    main.o(i.__sti___8_main_cpp_Eth) refers to mma7455.o(i._ZN7MMA7455C1E7PinNameS0_) for MMA7455::MMA7455(PinName, PinName)
    main.o(i.__sti___8_main_cpp_Eth) refers to lm75b.o(i._ZN5LM75BC1E7PinNameS0_NS_7AddressEi) for LM75B::LM75B(PinName, PinName, LM75B::Address, int)
    main.o(i.__sti___8_main_cpp_Eth) refers to main.o(.data) for Eth
    main.o(i.__sti___8_main_cpp_Eth) refers to ethernet.o(i._ZN4mbed8EthernetD1Ev) for mbed::Ethernet::~Ethernet()
    main.o(i.__sti___8_main_cpp_Eth) refers to main.o(.bss) for game
    main.o(i.__sti___8_main_cpp_Eth) refers to main.o(i._ZN4GameD1Ev) for Game::~Game()
    main.o(i.main) refers to lm75b.o(i._ZN5LM75B4openEv) for LM75B::open()
    main.o(i.main) refers to main.o(i._Z21init_double_bufferingv) for init_double_buffering()
    main.o(i.main) refers to ethernet.o(i._ZN4mbed8Ethernet4linkEv) for mbed::Ethernet::link()
    main.o(i.main) refers to analogin_api.o(i.analogin_read) for analogin_read
    main.o(i.main) refers to main.o(i._Z13jsPrsdAndRlsd7btnId_t) for jsPrsdAndRlsd(btnId_t)
    main.o(i.main) refers to game.o(i._ZN4Game10processKeyE7btnId_t) for Game::processKey(btnId_t)
    main.o(i.main) refers to game.o(i._ZN4Game11setStrengthEf) for Game::setStrength(float)
    main.o(i.main) refers to game.o(i._ZN4Game4drawEv) for Game::draw()
    main.o(i.main) refers to game.o(i._ZN4Game4loopEv) for Game::loop()
    main.o(i.main) refers to ethernet.o(i._ZN4mbed8Ethernet5writeEPKci) for mbed::Ethernet::write(const char*, int)
    main.o(i.main) refers to ethernet.o(i._ZN4mbed8Ethernet4sendEv) for mbed::Ethernet::send()
    main.o(i.main) refers to ethernet.o(i._ZN4mbed8Ethernet7receiveEv) for mbed::Ethernet::receive()
    main.o(i.main) refers to ethernet.o(i._ZN4mbed8Ethernet4readEPci) for mbed::Ethernet::read(char*, int)
    main.o(i.main) refers to adafruit_gfx.o(i._ZN12Adafruit_GFX9setCursorEss) for Adafruit_GFX::setCursor(short, short)
    main.o(i.main) refers to stream.o(i._ZN4mbed6Stream6printfEPKcz) for mbed::Stream::printf(const char*, ...)
    main.o(i.main) refers to main.o(i._Z19swap_double_buffersv) for swap_double_buffers()
    main.o(i.main) refers to wait_api.o(i.wait) for wait
    main.o(i.main) refers to main.o(.bss) for lm75b
    main.o(i.main) refers to main.o(.data) for Eth
    main.o(.ARM.exidx) refers to main.o(i._Z21init_double_bufferingv) for i._Z21init_double_bufferingv
    main.o(.ARM.exidx) refers to main.o(i._Z19swap_double_buffersv) for i._Z19swap_double_buffersv
    main.o(.ARM.exidx) refers to main.o(i._Z13jsPrsdAndRlsd7btnId_t) for i._Z13jsPrsdAndRlsd7btnId_t
    main.o(.ARM.exidx) refers to main.o(i.main) for i.main
    main.o(.ARM.exidx) refers to main.o(i._Z7accInitR7MMA7455) for i._Z7accInitR7MMA7455
    main.o(.ARM.exidx) refers to main.o(i.__sti___8_main_cpp_Eth) for i.__sti___8_main_cpp_Eth
    main.o(.init_array) refers to main.o(i.__sti___8_main_cpp_Eth) for __sti___8_main_cpp_Eth
    main.o(.init_array) refers to init_aeabi.o(.text) for __cpp_initialize__aeabi_
    matrix3x3.o(i._ZN9Matrix3x39TransposeEv) refers to matrix3x3.o(i._ZN9Matrix3x3C1Efffffffff) for Matrix3x3::Matrix3x3(float, float, float, float, float, float, float, float, float)
    matrix3x3.o(i._Zdv9Matrix3x3f) refers to matrix3x3.o(i._ZN9Matrix3x3C1Efffffffff) for Matrix3x3::Matrix3x3(float, float, float, float, float, float, float, float, float)
    matrix3x3.o(i._ZmI9Matrix3x3S_) refers to matrix3x3.o(i._ZN9Matrix3x3C1Efffffffff) for Matrix3x3::Matrix3x3(float, float, float, float, float, float, float, float, float)
    matrix3x3.o(i._Zml9Matrix3x3f) refers to matrix3x3.o(i._ZN9Matrix3x3C1Efffffffff) for Matrix3x3::Matrix3x3(float, float, float, float, float, float, float, float, float)
    matrix3x3.o(i._Zmlf9Matrix3x3) refers to matrix3x3.o(i._ZN9Matrix3x3C1Efffffffff) for Matrix3x3::Matrix3x3(float, float, float, float, float, float, float, float, float)
    matrix3x3.o(i._ZpL9Matrix3x3S_) refers to matrix3x3.o(i._ZN9Matrix3x3C1Efffffffff) for Matrix3x3::Matrix3x3(float, float, float, float, float, float, float, float, float)
    matrix3x3.o(.ARM.exidx) refers to matrix3x3.o(i._ZN9Matrix3x3C1Efffffffff) for i._ZN9Matrix3x3C1Efffffffff
    matrix3x3.o(.ARM.exidx) refers to matrix3x3.o(i._ZpL9Matrix3x3S_) for i._ZpL9Matrix3x3S_
    matrix3x3.o(.ARM.exidx) refers to matrix3x3.o(i._ZmI9Matrix3x3S_) for i._ZmI9Matrix3x3S_
    matrix3x3.o(.ARM.exidx) refers to matrix3x3.o(i._Zdv9Matrix3x3f) for i._Zdv9Matrix3x3f
    matrix3x3.o(.ARM.exidx) refers to matrix3x3.o(i._Zml9Matrix3x3f) for i._Zml9Matrix3x3f
    matrix3x3.o(.ARM.exidx) refers to matrix3x3.o(i._Zmlf9Matrix3x3) for i._Zmlf9Matrix3x3
    matrix3x3.o(.ARM.exidx) refers to matrix3x3.o(i._ZN9Matrix3x3C1Ev) for i._ZN9Matrix3x3C1Ev
    matrix3x3.o(.ARM.exidx) refers to matrix3x3.o(i._ZN9Matrix3x33detEv) for i._ZN9Matrix3x33detEv
    matrix3x3.o(.ARM.exidx) refers to matrix3x3.o(i._ZN9Matrix3x39TransposeEv) for i._ZN9Matrix3x39TransposeEv
    matrix3x3.o(.ARM.exidx) refers to matrix3x3.o(i._ZN9Matrix3x3pLES_) for i._ZN9Matrix3x3pLES_
    matrix3x3.o(.ARM.exidx) refers to matrix3x3.o(i._ZN9Matrix3x3mIES_) for i._ZN9Matrix3x3mIES_
    matrix3x3.o(.ARM.exidx) refers to matrix3x3.o(i._ZN9Matrix3x3mLEf) for i._ZN9Matrix3x3mLEf
    matrix3x3.o(.ARM.exidx) refers to matrix3x3.o(i._ZN9Matrix3x3dVEf) for i._ZN9Matrix3x3dVEf
    vector.o(i._ZN6Vector13terminalPointEPS_) refers to vector.o(i._ZN6Vector4getZEv) for Vector::getZ()
    vector.o(i._ZN6Vector13terminalPointEPS_) refers to vector.o(i._ZN6Vector4getXEv) for Vector::getX()
    vector.o(i._ZN6Vector13terminalPointEPS_) refers to vector.o(i._ZN6VectorC1Eff) for Vector::Vector(float, float)
    vector.o(i._ZN6Vector14calculateAngleEPS_) refers to vector.o(i._ZN6VectorC1Eff) for Vector::Vector(float, float)
    vector.o(i._ZN6Vector14calculateAngleEPS_) refers to vector.o(i._ZN6Vector9subVectorEPS_) for Vector::subVector(Vector*)
    vector.o(i._ZN6Vector14calculateAngleEPS_) refers to vector.o(i._ZN6Vector4getZEv) for Vector::getZ()
    vector.o(i._ZN6Vector14calculateAngleEPS_) refers to vector.o(i._ZN6Vector4getXEv) for Vector::getX()
    vector.o(i._ZN6Vector14calculateAngleEPS_) refers to atan2f.o(i.__hardfp_atan2f) for __hardfp_atan2f
    vector.o(i._ZN6Vector14vectorRotationEf) refers to vector.o(i._ZSt3sinf) for std::sin(float)
    vector.o(i._ZN6Vector14vectorRotationEf) refers to vector.o(i._ZSt3cosf) for std::cos(float)
    vector.o(i._ZN6Vector9setVectorEPS_) refers to vector.o(i._ZN6Vector4getXEv) for Vector::getX()
    vector.o(i._ZN6Vector9setVectorEPS_) refers to vector.o(i._ZN6Vector4getZEv) for Vector::getZ()
    vector.o(.ARM.exidx) refers to vector.o(i._ZN6VectorC1Ev) for i._ZN6VectorC1Ev
    vector.o(.ARM.exidx) refers to vector.o(i._ZN6VectorC1Eff) for i._ZN6VectorC1Eff
    vector.o(.ARM.exidx) refers to vector.o(i._ZN6Vector4getXEv) for i._ZN6Vector4getXEv
    vector.o(.ARM.exidx) refers to vector.o(i._ZN6Vector4getZEv) for i._ZN6Vector4getZEv
    vector.o(.ARM.exidx) refers to vector.o(i._ZN6Vector4setXEf) for i._ZN6Vector4setXEf
    vector.o(.ARM.exidx) refers to vector.o(i._ZN6Vector4setZEf) for i._ZN6Vector4setZEf
    vector.o(.ARM.exidx) refers to vector.o(i._ZN6Vector9setVectorEff) for i._ZN6Vector9setVectorEff
    vector.o(.ARM.exidx) refers to vector.o(i._ZN6Vector9setVectorEPS_) for i._ZN6Vector9setVectorEPS_
    vector.o(.ARM.exidx) refers to vector.o(i._ZN6Vector9addVectorEPS_) for i._ZN6Vector9addVectorEPS_
    vector.o(.ARM.exidx) refers to vector.o(i._ZN6Vector9subVectorEPS_) for i._ZN6Vector9subVectorEPS_
    vector.o(.ARM.exidx) refers to vector.o(i._ZN6Vector9mulVectorEPS_) for i._ZN6Vector9mulVectorEPS_
    vector.o(.ARM.exidx) refers to vector.o(i._ZN6Vector13terminalPointEPS_) for i._ZN6Vector13terminalPointEPS_
    vector.o(.ARM.exidx) refers to vector.o(i._ZN6Vector14vectorRotationEf) for i._ZN6Vector14vectorRotationEf
    vector.o(.ARM.exidx) refers to vector.o(i._ZN6Vector14calculateAngleEPS_) for i._ZN6Vector14calculateAngleEPS_
    vector.o(.ARM.exidx) refers to vector.o(i._ZN6Vector11sqrDistanceEPS_) for i._ZN6Vector11sqrDistanceEPS_
    ball.o(i._ZN4Ball10resetSpeedEv) refers to vector.o(i._ZN6Vector9setVectorEff) for Vector::setVector(float, float)
    ball.o(i._ZN4Ball11addPositionEP6Vector) refers to vector.o(i._ZN6Vector9addVectorEPS_) for Vector::addVector(Vector*)
    ball.o(i._ZN4Ball11rotateSpeedEf) refers to vector.o(i._ZN6Vector14vectorRotationEf) for Vector::vectorRotation(float)
    ball.o(i._ZN4Ball11setPositionEP6Vector) refers to vector.o(i._ZN6Vector9setVectorEPS_) for Vector::setVector(Vector*)
    ball.o(i._ZN4Ball11subPositionEP6Vector) refers to vector.o(i._ZN6Vector9subVectorEPS_) for Vector::subVector(Vector*)
    ball.o(i._ZN4Ball11tradeXSpeedEPS_) refers to ball.o(i._ZN4Ball9getYSpeedEv) for Ball::getYSpeed()
    ball.o(i._ZN4Ball11tradeXSpeedEPS_) refers to ball.o(i._ZN4Ball9getXSpeedEv) for Ball::getXSpeed()
    ball.o(i._ZN4Ball11tradeXSpeedEPS_) refers to vector.o(i._ZN6VectorC1Eff) for Vector::Vector(float, float)
    ball.o(i._ZN4Ball11tradeXSpeedEPS_) refers to ball.o(i._ZN4Ball8setSpeedEP6Vector) for Ball::setSpeed(Vector*)
    ball.o(i._ZN4Ball11tradeYSpeedEPS_) refers to ball.o(i._ZN4Ball9getYSpeedEv) for Ball::getYSpeed()
    ball.o(i._ZN4Ball11tradeYSpeedEPS_) refers to ball.o(i._ZN4Ball9getXSpeedEv) for Ball::getXSpeed()
    ball.o(i._ZN4Ball11tradeYSpeedEPS_) refers to vector.o(i._ZN6VectorC1Eff) for Vector::Vector(float, float)
    ball.o(i._ZN4Ball11tradeYSpeedEPS_) refers to ball.o(i._ZN4Ball8setSpeedEP6Vector) for Ball::setSpeed(Vector*)
    ball.o(i._ZN4Ball12addXPositionEf) refers to vector.o(i._ZN6VectorC1Eff) for Vector::Vector(float, float)
    ball.o(i._ZN4Ball12addXPositionEf) refers to vector.o(i._ZN6Vector9addVectorEPS_) for Vector::addVector(Vector*)
    ball.o(i._ZN4Ball12addYPositionEf) refers to vector.o(i._ZN6VectorC1Eff) for Vector::Vector(float, float)
    ball.o(i._ZN4Ball12addYPositionEf) refers to vector.o(i._ZN6Vector9addVectorEPS_) for Vector::addVector(Vector*)
    ball.o(i._ZN4Ball12getXPositionEv) refers to vector.o(i._ZN6Vector4getXEv) for Vector::getX()
    ball.o(i._ZN4Ball12getZPositionEv) refers to vector.o(i._ZN6Vector4getZEv) for Vector::getZ()
    ball.o(i._ZN4Ball12setXPositionEf) refers to vector.o(i._ZN6Vector4setXEf) for Vector::setX(float)
    ball.o(i._ZN4Ball12setYPositionEf) refers to vector.o(i._ZN6Vector4setZEf) for Vector::setZ(float)
    ball.o(i._ZN4Ball12subXPositionEf) refers to vector.o(i._ZN6VectorC1Eff) for Vector::Vector(float, float)
    ball.o(i._ZN4Ball12subXPositionEf) refers to vector.o(i._ZN6Vector9subVectorEPS_) for Vector::subVector(Vector*)
    ball.o(i._ZN4Ball12subYPositionEf) refers to vector.o(i._ZN6VectorC1Eff) for Vector::Vector(float, float)
    ball.o(i._ZN4Ball12subYPositionEf) refers to vector.o(i._ZN6Vector9subVectorEPS_) for Vector::subVector(Vector*)
    ball.o(i._ZN4Ball13blackPositionEv) refers to vector.o(i._ZN6VectorC1Eff) for Vector::Vector(float, float)
    ball.o(i._ZN4Ball13blackPositionEv) refers to ball.o(i._ZN4Ball11setPositionEP6Vector) for Ball::setPosition(Vector*)
    ball.o(i._ZN4Ball13reverseXSpeedEv) refers to vector.o(i._ZN6VectorC1Eff) for Vector::Vector(float, float)
    ball.o(i._ZN4Ball13reverseXSpeedEv) refers to vector.o(i._ZN6Vector9mulVectorEPS_) for Vector::mulVector(Vector*)
    ball.o(i._ZN4Ball13reverseZSpeedEv) refers to vector.o(i._ZN6VectorC1Eff) for Vector::Vector(float, float)
    ball.o(i._ZN4Ball13reverseZSpeedEv) refers to vector.o(i._ZN6Vector9mulVectorEPS_) for Vector::mulVector(Vector*)
    ball.o(i._ZN4Ball13whitePositionEv) refers to vector.o(i._ZN6VectorC1Eff) for Vector::Vector(float, float)
    ball.o(i._ZN4Ball13whitePositionEv) refers to ball.o(i._ZN4Ball11setPositionEP6Vector) for Ball::setPosition(Vector*)
    ball.o(i._ZN4Ball19calculateSpeedAngleEv) refers to vector.o(i._ZN6VectorC1Ev) for Vector::Vector()
    ball.o(i._ZN4Ball19calculateSpeedAngleEv) refers to vector.o(i._ZN6Vector14calculateAngleEPS_) for Vector::calculateAngle(Vector*)
    ball.o(i._ZN4Ball4drawEP7Displayt) refers to ball.o(i._ZN4Ball12getZPositionEv) for Ball::getZPosition()
    ball.o(i._ZN4Ball4drawEP7Displayt) refers to ball.o(i._ZN4Ball12getXPositionEv) for Ball::getXPosition()
    ball.o(i._ZN4Ball4drawEP7Displayt) refers to adafruit_gfx.o(i._ZN12Adafruit_GFX10fillCircleEssst) for Adafruit_GFX::fillCircle(short, short, short, unsigned short)
    ball.o(i._ZN4Ball8addSpeedEP6Vector) refers to vector.o(i._ZN6Vector9addVectorEPS_) for Vector::addVector(Vector*)
    ball.o(i._ZN4Ball8isMovingEv) refers to vector.o(i._ZN6Vector4getXEv) for Vector::getX()
    ball.o(i._ZN4Ball8isMovingEv) refers to f2d.o(x$fpl$f2d) for __aeabi_f2d
    ball.o(i._ZN4Ball8isMovingEv) refers to deqf.o(x$fpl$deqf) for __aeabi_cdcmpeq
    ball.o(i._ZN4Ball8isMovingEv) refers to vector.o(i._ZN6Vector4getZEv) for Vector::getZ()
    ball.o(i._ZN4Ball8setSpeedEP6Vector) refers to vector.o(i._ZN6Vector9setVectorEPS_) for Vector::setVector(Vector*)
    ball.o(i._ZN4Ball8subSpeedEP6Vector) refers to vector.o(i._ZN6Vector9subVectorEPS_) for Vector::subVector(Vector*)
    ball.o(i._ZN4Ball9getXSpeedEv) refers to vector.o(i._ZN6Vector4getXEv) for Vector::getX()
    ball.o(i._ZN4Ball9getYSpeedEv) refers to vector.o(i._ZN6Vector4getZEv) for Vector::getZ()
    ball.o(i._ZN9BallArray16getBlackPositionEv) refers to rt_memcpy_w.o(.text) for __aeabi_memcpy4
    ball.o(i._ZN9BallArray16getBlackPositionEv) refers to ball.o(i._ZN4Ball11getPositionEv) for Ball::getPosition()
    ball.o(i._ZN9BallArray16getWhitePositionEv) refers to rt_memcpy_w.o(.text) for __aeabi_memcpy4
    ball.o(i._ZN9BallArray16getWhitePositionEv) refers to ball.o(i._ZN4Ball11getPositionEv) for Ball::getPosition()
    ball.o(i._ZN9BallArray19initializeBallArrayEi) refers to ball.o(i._ZN4Ball10resetSpeedEv) for Ball::resetSpeed()
    ball.o(i._ZN9BallArray19initializeBallArrayEi) refers to ball.o(i._ZN4Ball9putInGameEv) for Ball::putInGame()
    ball.o(i._ZN9BallArray19initializeBallArrayEi) refers to vector.o(i._ZN6VectorC1Ev) for Vector::Vector()
    ball.o(i._ZN9BallArray19initializeBallArrayEi) refers to ball.o(i._ZN4Ball4killEv) for Ball::kill()
    ball.o(i._ZN9BallArray19initializeBallArrayEi) refers to ball.o(i._ZN4Ball13whitePositionEv) for Ball::whitePosition()
    ball.o(i._ZN9BallArray19initializeBallArrayEi) refers to ball.o(i._ZN4Ball13blackPositionEv) for Ball::blackPosition()
    ball.o(i._ZN9BallArray19initializeBallArrayEi) refers to vector.o(i._ZN6Vector4setXEf) for Vector::setX(float)
    ball.o(i._ZN9BallArray19initializeBallArrayEi) refers to vector.o(i._ZN6Vector4setZEf) for Vector::setZ(float)
    ball.o(i._ZN9BallArray19initializeBallArrayEi) refers to ball.o(i._ZN4Ball11setPositionEP6Vector) for Ball::setPosition(Vector*)
    ball.o(i._ZN9BallArray9ballsLeftEv) refers to ball.o(i._ZN4Ball6inGameEv) for Ball::inGame()
    ball.o(.ARM.exidx) refers to ball.o(i._ZN4Ball12getZPositionEv) for i._ZN4Ball12getZPositionEv
    ball.o(.ARM.exidx) refers to ball.o(i._ZN4Ball12getXPositionEv) for i._ZN4Ball12getXPositionEv
    ball.o(.ARM.exidx) refers to ball.o(i._ZN4Ball4drawEP7Displayt) for i._ZN4Ball4drawEP7Displayt
    ball.o(.ARM.exidx) refers to ball.o(i._ZN4Ball6inGameEv) for i._ZN4Ball6inGameEv
    ball.o(.ARM.exidx) refers to ball.o(i._ZN4Ball9getNumberEv) for i._ZN4Ball9getNumberEv
    ball.o(.ARM.exidx) refers to ball.o(i._ZN4Ball11getPositionEv) for i._ZN4Ball11getPositionEv
    ball.o(.ARM.exidx) refers to ball.o(i._ZN4Ball8getSpeedEv) for i._ZN4Ball8getSpeedEv
    ball.o(.ARM.exidx) refers to ball.o(i._ZN4Ball9getXSpeedEv) for i._ZN4Ball9getXSpeedEv
    ball.o(.ARM.exidx) refers to ball.o(i._ZN4Ball9getYSpeedEv) for i._ZN4Ball9getYSpeedEv
    ball.o(.ARM.exidx) refers to ball.o(i._ZN4Ball12getLastAngleEv) for i._ZN4Ball12getLastAngleEv
    ball.o(.ARM.exidx) refers to ball.o(i._ZN4Ball11setPositionEP6Vector) for i._ZN4Ball11setPositionEP6Vector
    ball.o(.ARM.exidx) refers to ball.o(i._ZN4Ball12setXPositionEf) for i._ZN4Ball12setXPositionEf
    ball.o(.ARM.exidx) refers to ball.o(i._ZN4Ball12setYPositionEf) for i._ZN4Ball12setYPositionEf
    ball.o(.ARM.exidx) refers to ball.o(i._ZN4Ball8setSpeedEP6Vector) for i._ZN4Ball8setSpeedEP6Vector
    ball.o(.ARM.exidx) refers to ball.o(i._ZN4Ball11addPositionEP6Vector) for i._ZN4Ball11addPositionEP6Vector
    ball.o(.ARM.exidx) refers to ball.o(i._ZN4Ball12addXPositionEf) for i._ZN4Ball12addXPositionEf
    ball.o(.ARM.exidx) refers to ball.o(i._ZN4Ball12addYPositionEf) for i._ZN4Ball12addYPositionEf
    ball.o(.ARM.exidx) refers to ball.o(i._ZN4Ball11subPositionEP6Vector) for i._ZN4Ball11subPositionEP6Vector
    ball.o(.ARM.exidx) refers to ball.o(i._ZN4Ball12subXPositionEf) for i._ZN4Ball12subXPositionEf
    ball.o(.ARM.exidx) refers to ball.o(i._ZN4Ball12subYPositionEf) for i._ZN4Ball12subYPositionEf
    ball.o(.ARM.exidx) refers to ball.o(i._ZN4Ball8isMovingEv) for i._ZN4Ball8isMovingEv
    ball.o(.ARM.exidx) refers to ball.o(i._ZN4Ball19calculateSpeedAngleEv) for i._ZN4Ball19calculateSpeedAngleEv
    ball.o(.ARM.exidx) refers to ball.o(i._ZN4Ball10resetSpeedEv) for i._ZN4Ball10resetSpeedEv
    ball.o(.ARM.exidx) refers to ball.o(i._ZN4Ball8addSpeedEP6Vector) for i._ZN4Ball8addSpeedEP6Vector
    ball.o(.ARM.exidx) refers to ball.o(i._ZN4Ball8subSpeedEP6Vector) for i._ZN4Ball8subSpeedEP6Vector
    ball.o(.ARM.exidx) refers to ball.o(i._ZN4Ball11rotateSpeedEf) for i._ZN4Ball11rotateSpeedEf
    ball.o(.ARM.exidx) refers to ball.o(i._ZN4Ball11tradeXSpeedEPS_) for i._ZN4Ball11tradeXSpeedEPS_
    ball.o(.ARM.exidx) refers to ball.o(i._ZN4Ball11tradeYSpeedEPS_) for i._ZN4Ball11tradeYSpeedEPS_
    ball.o(.ARM.exidx) refers to ball.o(i._ZN4Ball13reverseXSpeedEv) for i._ZN4Ball13reverseXSpeedEv
    ball.o(.ARM.exidx) refers to ball.o(i._ZN4Ball13reverseZSpeedEv) for i._ZN4Ball13reverseZSpeedEv
    ball.o(.ARM.exidx) refers to ball.o(i._ZN4Ball9putInGameEv) for i._ZN4Ball9putInGameEv
    ball.o(.ARM.exidx) refers to ball.o(i._ZN4Ball4killEv) for i._ZN4Ball4killEv
    ball.o(.ARM.exidx) refers to ball.o(i._ZN4Ball13whitePositionEv) for i._ZN4Ball13whitePositionEv
    ball.o(.ARM.exidx) refers to ball.o(i._ZN4Ball13blackPositionEv) for i._ZN4Ball13blackPositionEv
    ball.o(.ARM.exidx) refers to ball.o(i._ZN9BallArray19initializeBallArrayEi) for i._ZN9BallArray19initializeBallArrayEi
    ball.o(.ARM.exidx) refers to ball.o(i._ZN9BallArray7getBallEi) for i._ZN9BallArray7getBallEi
    ball.o(.ARM.exidx) refers to ball.o(i._ZN9BallArray7getSizeEv) for i._ZN9BallArray7getSizeEv
    ball.o(.ARM.exidx) refers to ball.o(i._ZN9BallArray9ballsLeftEv) for i._ZN9BallArray9ballsLeftEv
    ball.o(.ARM.exidx) refers to ball.o(i._ZN9BallArray16getWhitePositionEv) for i._ZN9BallArray16getWhitePositionEv
    ball.o(.ARM.exidx) refers to ball.o(i._ZN9BallArray16getBlackPositionEv) for i._ZN9BallArray16getBlackPositionEv
    physics.o(i._ZN7Physics10energyLossEP4Ball) refers to ball.o(i._ZN4Ball8getSpeedEv) for Ball::getSpeed()
    physics.o(i._ZN7Physics10energyLossEP4Ball) refers to vector.o(i._ZN6VectorC1Ev) for Vector::Vector()
    physics.o(i._ZN7Physics10energyLossEP4Ball) refers to vector.o(i._ZN6Vector9setVectorEff) for Vector::setVector(float, float)
    physics.o(i._ZN7Physics10energyLossEP4Ball) refers to vector.o(i._ZN6Vector9mulVectorEPS_) for Vector::mulVector(Vector*)
    physics.o(i._ZN7Physics10energyLossEP4Ball) refers to ball.o(i._ZN4Ball8setSpeedEP6Vector) for Ball::setSpeed(Vector*)
    physics.o(i._ZN7Physics10hitCueBallEP4BallP4Shot) refers to vector.o(i._ZN6VectorC1Ev) for Vector::Vector()
    physics.o(i._ZN7Physics10hitCueBallEP4BallP4Shot) refers to shot.o(i._ZN4Shot8getAngleEv) for Shot::getAngle()
    physics.o(i._ZN7Physics10hitCueBallEP4BallP4Shot) refers to shot.o(i._ZN4Shot6getStrEv) for Shot::getStr()
    physics.o(i._ZN7Physics10hitCueBallEP4BallP4Shot) refers to f2d.o(x$fpl$f2d) for __aeabi_f2d
    physics.o(i._ZN7Physics10hitCueBallEP4BallP4Shot) refers to dmul.o(x$fpl$dmul) for __aeabi_dmul
    physics.o(i._ZN7Physics10hitCueBallEP4BallP4Shot) refers to ddiv.o(x$fpl$ddiv) for __aeabi_ddiv
    physics.o(i._ZN7Physics10hitCueBallEP4BallP4Shot) refers to sin.o(i.__hardfp_sin) for __hardfp_sin
    physics.o(i._ZN7Physics10hitCueBallEP4BallP4Shot) refers to d2f.o(x$fpl$d2f) for __aeabi_d2f
    physics.o(i._ZN7Physics10hitCueBallEP4BallP4Shot) refers to vector.o(i._ZN6Vector4setXEf) for Vector::setX(float)
    physics.o(i._ZN7Physics10hitCueBallEP4BallP4Shot) refers to cos.o(i.__hardfp_cos) for __hardfp_cos
    physics.o(i._ZN7Physics10hitCueBallEP4BallP4Shot) refers to vector.o(i._ZN6Vector4setZEf) for Vector::setZ(float)
    physics.o(i._ZN7Physics10hitCueBallEP4BallP4Shot) refers to ball.o(i._ZN4Ball8setSpeedEP6Vector) for Ball::setSpeed(Vector*)
    physics.o(i._ZN7Physics13ballCollisionEP4BallS1_) refers to vector.o(i._ZN6VectorC1Ev) for Vector::Vector()
    physics.o(i._ZN7Physics13ballCollisionEP4BallS1_) refers to ball.o(i._ZN4Ball11getPositionEv) for Ball::getPosition()
    physics.o(i._ZN7Physics13ballCollisionEP4BallS1_) refers to vector.o(i._ZN6Vector14calculateAngleEPS_) for Vector::calculateAngle(Vector*)
    physics.o(i._ZN7Physics13ballCollisionEP4BallS1_) refers to ball.o(i._ZN4Ball11rotateSpeedEf) for Ball::rotateSpeed(float)
    physics.o(i._ZN7Physics13ballCollisionEP4BallS1_) refers to ball.o(i._ZN4Ball11tradeXSpeedEPS_) for Ball::tradeXSpeed(Ball*)
    physics.o(i._ZN7Physics13ballCollisionEP4BallS1_) refers to physics.o(i._ZN7Physics16fixBallCollisionEP4BallS1_) for Physics::fixBallCollision(Ball*, Ball*)
    physics.o(i._ZN7Physics14tableCollisionEP5TableP4Ball) refers to physics.o(i._ZN7Physics19checkTableCollisionEP5TableP4Ball) for Physics::checkTableCollision(Table*, Ball*)
    physics.o(i._ZN7Physics14tableCollisionEP5TableP4Ball) refers to ball.o(i._ZN4Ball13reverseXSpeedEv) for Ball::reverseXSpeed()
    physics.o(i._ZN7Physics14tableCollisionEP5TableP4Ball) refers to ball.o(i._ZN4Ball13reverseZSpeedEv) for Ball::reverseZSpeed()
    physics.o(i._ZN7Physics14tableCollisionEP5TableP4Ball) refers to physics.o(i._ZN7Physics10energyLossEP4Ball) for Physics::energyLoss(Ball*)
    physics.o(i._ZN7Physics14tableCollisionEP5TableP4Ball) refers to physics.o(i._ZN7Physics17fixTableCollisionEP4Ball) for Physics::fixTableCollision(Ball*)
    physics.o(i._ZN7Physics16fixBallCollisionEP4BallS1_) refers to ball.o(i._ZN4Ball12getXPositionEv) for Ball::getXPosition()
    physics.o(i._ZN7Physics16fixBallCollisionEP4BallS1_) refers to ball.o(i._ZN4Ball12addXPositionEf) for Ball::addXPosition(float)
    physics.o(i._ZN7Physics16fixBallCollisionEP4BallS1_) refers to ball.o(i._ZN4Ball12subXPositionEf) for Ball::subXPosition(float)
    physics.o(i._ZN7Physics16fixBallCollisionEP4BallS1_) refers to physics.o(i._ZN7Physics18checkBallCollisionEP4BallS1_Pf) for Physics::checkBallCollision(Ball*, Ball*, float*)
    physics.o(i._ZN7Physics16respawnCollisionEP5TableP9BallArrayb) refers to ball.o(i._ZN9BallArray7getBallEi) for BallArray::getBall(int)
    physics.o(i._ZN7Physics16respawnCollisionEP5TableP9BallArrayb) refers to ball.o(i._ZN4Ball12getXPositionEv) for Ball::getXPosition()
    physics.o(i._ZN7Physics16respawnCollisionEP5TableP9BallArrayb) refers to physics.o(i._ZN7Physics14tableCollisionEP5TableP4Ball) for Physics::tableCollision(Table*, Ball*)
    physics.o(i._ZN7Physics16respawnCollisionEP5TableP9BallArrayb) refers to ball.o(i._ZN9BallArray7getSizeEv) for BallArray::getSize()
    physics.o(i._ZN7Physics16respawnCollisionEP5TableP9BallArrayb) refers to physics.o(i._ZN7Physics18checkBallCollisionEP4BallS1_Pf) for Physics::checkBallCollision(Ball*, Ball*, float*)
    physics.o(i._ZN7Physics16respawnCollisionEP5TableP9BallArrayb) refers to ball.o(i._ZN4Ball12subYPositionEf) for Ball::subYPosition(float)
    physics.o(i._ZN7Physics16respawnCollisionEP5TableP9BallArrayb) refers to ball.o(i._ZN4Ball12addYPositionEf) for Ball::addYPosition(float)
    physics.o(i._ZN7Physics17fixTableCollisionEP4Ball) refers to ball.o(i._ZN4Ball12setXPositionEf) for Ball::setXPosition(float)
    physics.o(i._ZN7Physics17fixTableCollisionEP4Ball) refers to ball.o(i._ZN4Ball12setYPositionEf) for Ball::setYPosition(float)
    physics.o(i._ZN7Physics17getCollisionOrderEP9BallArrayi) refers to ball.o(i._ZN9BallArray7getSizeEv) for BallArray::getSize()
    physics.o(i._ZN7Physics17getCollisionOrderEP9BallArrayi) refers to h1_alloc.o(.text) for malloc
    physics.o(i._ZN7Physics17getCollisionOrderEP9BallArrayi) refers to ball.o(i._ZN9BallArray7getBallEi) for BallArray::getBall(int)
    physics.o(i._ZN7Physics17getCollisionOrderEP9BallArrayi) refers to ball.o(i._ZN4Ball6inGameEv) for Ball::inGame()
    physics.o(i._ZN7Physics17getCollisionOrderEP9BallArrayi) refers to physics.o(i._ZN7Physics18checkBallCollisionEP4BallS1_Pf) for Physics::checkBallCollision(Ball*, Ball*, float*)
    physics.o(i._ZN7Physics17getCollisionOrderEP9BallArrayi) refers to physics.o(i._ZN7Physics14insertDistanceEPfif) for Physics::insertDistance(float*, int, float)
    physics.o(i._ZN7Physics17getCollisionOrderEP9BallArrayi) refers to physics.o(i._ZN7Physics11insertIndexEPiiii) for Physics::insertIndex(int*, int, int, int)
    physics.o(i._ZN7Physics17getCollisionOrderEP9BallArrayi) refers to h1_free.o(.text) for free
    physics.o(i._ZN7Physics17holeAreaCollisionEP5TableP4Ball) refers to vector.o(i._ZN6VectorC1Ev) for Vector::Vector()
    physics.o(i._ZN7Physics17holeAreaCollisionEP5TableP4Ball) refers to ball.o(i._ZN4Ball11getPositionEv) for Ball::getPosition()
    physics.o(i._ZN7Physics17holeAreaCollisionEP5TableP4Ball) refers to table.o(i._ZN5Table8holeAreaE6Vector) for Table::holeArea(Vector)
    physics.o(i._ZN7Physics17holeAreaCollisionEP5TableP4Ball) refers to table.o(i._ZN5Table11nearestHoleE6Vector) for Table::nearestHole(Vector)
    physics.o(i._ZN7Physics17holeAreaCollisionEP5TableP4Ball) refers to physics.o(i._ZN7Physics18checkHoleCollisionEP5TableP4Balli) for Physics::checkHoleCollision(Table*, Ball*, int)
    physics.o(i._ZN7Physics17holeAreaCollisionEP5TableP4Ball) refers to ball.o(i._ZN4Ball4killEv) for Ball::kill()
    physics.o(i._ZN7Physics17holeAreaCollisionEP5TableP4Ball) refers to ball.o(i._ZN4Ball10resetSpeedEv) for Ball::resetSpeed()
    physics.o(i._ZN7Physics18checkBallCollisionEP4BallS1_Pf) refers to vector.o(i._ZN6VectorC1Ev) for Vector::Vector()
    physics.o(i._ZN7Physics18checkBallCollisionEP4BallS1_Pf) refers to ball.o(i._ZN4Ball11getPositionEv) for Ball::getPosition()
    physics.o(i._ZN7Physics18checkBallCollisionEP4BallS1_Pf) refers to vector.o(i._ZN6Vector11sqrDistanceEPS_) for Vector::sqrDistance(Vector*)
    physics.o(i._ZN7Physics18checkHoleCollisionEP5TableP4Balli) refers to vector.o(i._ZN6VectorC1Ev) for Vector::Vector()
    physics.o(i._ZN7Physics18checkHoleCollisionEP5TableP4Balli) refers to table.o(i._ZN5Table13getHoleCenterEi) for Table::getHoleCenter(int)
    physics.o(i._ZN7Physics18checkHoleCollisionEP5TableP4Balli) refers to ball.o(i._ZN4Ball11getPositionEv) for Ball::getPosition()
    physics.o(i._ZN7Physics18checkHoleCollisionEP5TableP4Balli) refers to vector.o(i._ZN6Vector11sqrDistanceEPS_) for Vector::sqrDistance(Vector*)
    physics.o(i._ZN7Physics19checkTableCollisionEP5TableP4Ball) refers to ball.o(i._ZN4Ball12getXPositionEv) for Ball::getXPosition()
    physics.o(i._ZN7Physics19checkTableCollisionEP5TableP4Ball) refers to f2d.o(x$fpl$f2d) for __aeabi_f2d
    physics.o(i._ZN7Physics19checkTableCollisionEP5TableP4Ball) refers to drleqf.o(x$fpl$drleqf) for __aeabi_cdrcmple
    physics.o(i._ZN7Physics19checkTableCollisionEP5TableP4Ball) refers to dleqf.o(x$fpl$dleqf) for __aeabi_cdcmple
    physics.o(i._ZN7Physics19checkTableCollisionEP5TableP4Ball) refers to ball.o(i._ZN4Ball12getZPositionEv) for Ball::getZPosition()
    physics.o(i._ZN7Physics8FrictionEP4Ball) refers to ball.o(i._ZN4Ball8isMovingEv) for Ball::isMoving()
    physics.o(i._ZN7Physics8FrictionEP4Ball) refers to ball.o(i._ZN4Ball8getSpeedEv) for Ball::getSpeed()
    physics.o(i._ZN7Physics8FrictionEP4Ball) refers to ball.o(i._ZN4Ball19calculateSpeedAngleEv) for Ball::calculateSpeedAngle()
    physics.o(i._ZN7Physics8FrictionEP4Ball) refers to vector.o(i._ZN6Vector14vectorRotationEf) for Vector::vectorRotation(float)
    physics.o(i._ZN7Physics8FrictionEP4Ball) refers to vector.o(i._ZN6Vector4getXEv) for Vector::getX()
    physics.o(i._ZN7Physics8FrictionEP4Ball) refers to vector.o(i._ZN6Vector4setXEf) for Vector::setX(float)
    physics.o(i._ZN7Physics8FrictionEP4Ball) refers to ball.o(i._ZN4Ball10resetSpeedEv) for Ball::resetSpeed()
    physics.o(i._ZN7Physics8FrictionEP4Ball) refers to ball.o(i._ZN4Ball8setSpeedEP6Vector) for Ball::setSpeed(Vector*)
    physics.o(i._ZN7Physics8movementEP4Ball) refers to vector.o(i._ZN6VectorC1Ev) for Vector::Vector()
    physics.o(i._ZN7Physics8movementEP4Ball) refers to physics.o(i._ZN7Physics8FrictionEP4Ball) for Physics::Friction(Ball*)
    physics.o(i._ZN7Physics8movementEP4Ball) refers to ball.o(i._ZN4Ball8getSpeedEv) for Ball::getSpeed()
    physics.o(i._ZN7Physics8movementEP4Ball) refers to ball.o(i._ZN4Ball11addPositionEP6Vector) for Ball::addPosition(Vector*)
    physics.o(i._ZN7PhysicsC1Ev) refers to h1_alloc.o(.text) for malloc
    physics.o(i._ZN7PhysicsD1Ev) refers to h1_free.o(.text) for free
    physics.o(.ARM.exidx) refers to physics.o(i._ZN7Physics8FrictionEP4Ball) for i._ZN7Physics8FrictionEP4Ball
    physics.o(.ARM.exidx) refers to physics.o(i._ZN7Physics10energyLossEP4Ball) for i._ZN7Physics10energyLossEP4Ball
    physics.o(.ARM.exidx) refers to physics.o(i._ZN7Physics14insertDistanceEPfif) for i._ZN7Physics14insertDistanceEPfif
    physics.o(.ARM.exidx) refers to physics.o(i._ZN7Physics11insertIndexEPiiii) for i._ZN7Physics11insertIndexEPiiii
    physics.o(.ARM.exidx) refers to physics.o(i._ZN7Physics18checkBallCollisionEP4BallS1_Pf) for i._ZN7Physics18checkBallCollisionEP4BallS1_Pf
    physics.o(.ARM.exidx) refers to physics.o(i._ZN7Physics19checkTableCollisionEP5TableP4Ball) for i._ZN7Physics19checkTableCollisionEP5TableP4Ball
    physics.o(.ARM.exidx) refers to physics.o(i._ZN7Physics18checkHoleCollisionEP5TableP4Balli) for i._ZN7Physics18checkHoleCollisionEP5TableP4Balli
    physics.o(.ARM.exidx) refers to physics.o(i._ZN7Physics16fixBallCollisionEP4BallS1_) for i._ZN7Physics16fixBallCollisionEP4BallS1_
    physics.o(.ARM.exidx) refers to physics.o(i._ZN7Physics17fixTableCollisionEP4Ball) for i._ZN7Physics17fixTableCollisionEP4Ball
    physics.o(.ARM.exidx) refers to physics.o(i._ZN7PhysicsC1Ev) for i._ZN7PhysicsC1Ev
    physics.o(.ARM.exidx) refers to physics.o(i._ZN7PhysicsD1Ev) for i._ZN7PhysicsD1Ev
    physics.o(.ARM.exidx) refers to physics.o(i._ZN7Physics17getCollisionOrderEP9BallArrayi) for i._ZN7Physics17getCollisionOrderEP9BallArrayi
    physics.o(.ARM.exidx) refers to physics.o(i._ZN7Physics13hasCollisionsEv) for i._ZN7Physics13hasCollisionsEv
    physics.o(.ARM.exidx) refers to physics.o(i._ZN7Physics12getCollisionEv) for i._ZN7Physics12getCollisionEv
    physics.o(.ARM.exidx) refers to physics.o(i._ZN7Physics8movementEP4Ball) for i._ZN7Physics8movementEP4Ball
    physics.o(.ARM.exidx) refers to physics.o(i._ZN7Physics13ballCollisionEP4BallS1_) for i._ZN7Physics13ballCollisionEP4BallS1_
    physics.o(.ARM.exidx) refers to physics.o(i._ZN7Physics14tableCollisionEP5TableP4Ball) for i._ZN7Physics14tableCollisionEP5TableP4Ball
    physics.o(.ARM.exidx) refers to physics.o(i._ZN7Physics17holeAreaCollisionEP5TableP4Ball) for i._ZN7Physics17holeAreaCollisionEP5TableP4Ball
    physics.o(.ARM.exidx) refers to physics.o(i._ZN7Physics16respawnCollisionEP5TableP9BallArrayb) for i._ZN7Physics16respawnCollisionEP5TableP9BallArrayb
    physics.o(.ARM.exidx) refers to physics.o(i._ZN7Physics10hitCueBallEP4BallP4Shot) for i._ZN7Physics10hitCueBallEP4BallP4Shot
    interface.o(i._ZN9Interface10playerTurnEi) refers to adafruit_gfx.o(i._ZN12Adafruit_GFX9setCursorEss) for Adafruit_GFX::setCursor(short, short)
    interface.o(i._ZN9Interface10playerTurnEi) refers to stream.o(i._ZN4mbed6Stream6printfEPKcz) for mbed::Stream::printf(const char*, ...)
    interface.o(i._ZN9Interface15drawIllegalMoveEi) refers to adafruit_gfx.o(i._ZN12Adafruit_GFX9setCursorEss) for Adafruit_GFX::setCursor(short, short)
    interface.o(i._ZN9Interface15drawIllegalMoveEi) refers to stream.o(i._ZN4mbed6Stream6printfEPKcz) for mbed::Stream::printf(const char*, ...)
    interface.o(i._ZN9Interface16drawShotStrengthEf) refers to adafruit_gfx.o(i._ZN12Adafruit_GFX9setCursorEss) for Adafruit_GFX::setCursor(short, short)
    interface.o(i._ZN9Interface16drawShotStrengthEf) refers to f2d.o(x$fpl$f2d) for __aeabi_f2d
    interface.o(i._ZN9Interface16drawShotStrengthEf) refers to stream.o(i._ZN4mbed6Stream6printfEPKcz) for mbed::Stream::printf(const char*, ...)
    interface.o(i._ZN9Interface4initEv) refers to adafruit_gfx.o(i._ZN12Adafruit_GFX12setTextColorEtt) for Adafruit_GFX::setTextColor(unsigned short, unsigned short)
    interface.o(i._ZN9Interface7drawCueEP4Shotb) refers to ball.o(i._ZN4Ball11getPositionEv) for Ball::getPosition()
    interface.o(i._ZN9Interface7drawCueEP4Shotb) refers to cue.o(i._ZN3Cue11setPositionE6Vector) for Cue::setPosition(Vector)
    interface.o(i._ZN9Interface7drawCueEP4Shotb) refers to shot.o(i._ZN4Shot8getAngleEv) for Shot::getAngle()
    interface.o(i._ZN9Interface7drawCueEP4Shotb) refers to cue.o(i._ZN3Cue8setAngleEf) for Cue::setAngle(float)
    interface.o(i._ZN9Interface7drawCueEP4Shotb) refers to shot.o(i._ZN4Shot6getStrEv) for Shot::getStr()
    interface.o(i._ZN9Interface7drawCueEP4Shotb) refers to cue.o(i._ZN3Cue11setStrengthEf) for Cue::setStrength(float)
    interface.o(i._ZN9Interface7drawCueEP4Shotb) refers to ball.o(i._ZN9BallArray16getWhitePositionEv) for BallArray::getWhitePosition()
    interface.o(i._ZN9Interface7drawCueEP4Shotb) refers to cue.o(i._ZN3Cue4drawEP7DisplayP4Shot6Vector) for Cue::draw(Display*, Shot*, Vector)
    interface.o(i._ZN9Interface9drawBallsEv) refers to ball.o(i._ZN9BallArray7getBallEi) for BallArray::getBall(int)
    interface.o(i._ZN9Interface9drawBallsEv) refers to ball.o(i._ZN4Ball6inGameEv) for Ball::inGame()
    interface.o(i._ZN9Interface9drawBallsEv) refers to ball.o(i._ZN4Ball4drawEP7Displayt) for Ball::draw(Display*, unsigned short)
    interface.o(i._ZN9Interface9drawBallsEv) refers to ball.o(i._ZN9BallArray7getSizeEv) for BallArray::getSize()
    interface.o(i._ZN9Interface9drawTableEv) refers to table.o(i._ZN5Table4drawEP7Display) for Table::draw(Display*)
    interface.o(i._ZN9Interface9playerWonEi) refers to adafruit_gfx.o(i._ZN12Adafruit_GFX9setCursorEss) for Adafruit_GFX::setCursor(short, short)
    interface.o(i._ZN9Interface9playerWonEi) refers to stream.o(i._ZN4mbed6Stream6printfEPKcz) for mbed::Stream::printf(const char*, ...)
    interface.o(i._ZN9InterfaceC1EP7Display) refers to cue.o(i._ZN3CueC1Ev) for Cue::Cue()
    interface.o(i._ZN9InterfaceC1Ev) refers to cue.o(i._ZN3CueC1Ev) for Cue::Cue()
    interface.o(i._ZN9InterfaceD1Ev) refers to cue.o(i._ZN3CueD1Ev) for Cue::~Cue()
    interface.o(.ARM.exidx) refers to interface.o(i._ZN9InterfaceC1Ev) for i._ZN9InterfaceC1Ev
    interface.o(.ARM.exidx) refers to interface.o(i._ZN9InterfaceD1Ev) for i._ZN9InterfaceD1Ev
    interface.o(.ARM.exidx) refers to interface.o(i._ZN9InterfaceC1EP7Display) for i._ZN9InterfaceC1EP7Display
    interface.o(.ARM.exidx) refers to interface.o(i._ZN9Interface4initEv) for i._ZN9Interface4initEv
    interface.o(.ARM.exidx) refers to interface.o(i._ZN9Interface9drawTableEv) for i._ZN9Interface9drawTableEv
    interface.o(.ARM.exidx) refers to interface.o(i._ZN9Interface9drawBallsEv) for i._ZN9Interface9drawBallsEv
    interface.o(.ARM.exidx) refers to interface.o(i._ZN9Interface7drawCueEP4Shotb) for i._ZN9Interface7drawCueEP4Shotb
    interface.o(.ARM.exidx) refers to interface.o(i._ZN9Interface16drawShotStrengthEf) for i._ZN9Interface16drawShotStrengthEf
    interface.o(.ARM.exidx) refers to interface.o(i._ZN9Interface15drawIllegalMoveEi) for i._ZN9Interface15drawIllegalMoveEi
    interface.o(.ARM.exidx) refers to interface.o(i._ZN9Interface10playerTurnEi) for i._ZN9Interface10playerTurnEi
    interface.o(.ARM.exidx) refers to interface.o(i._ZN9Interface9playerWonEi) for i._ZN9Interface9playerWonEi
    interface.o(.ARM.exidx) refers to interface.o(i._ZNK9Interface8getTableEv) for i._ZNK9Interface8getTableEv
    interface.o(.ARM.exidx) refers to interface.o(i._ZN9Interface8setTableEP5Table) for i._ZN9Interface8setTableEP5Table
    interface.o(.ARM.exidx) refers to interface.o(i._ZNK9Interface10getCueBallEv) for i._ZNK9Interface10getCueBallEv
    interface.o(.ARM.exidx) refers to interface.o(i._ZN9Interface10setCueBallEP4Ball) for i._ZN9Interface10setCueBallEP4Ball
    interface.o(.ARM.exidx) refers to interface.o(i._ZNK9Interface12getBlackBallEv) for i._ZNK9Interface12getBlackBallEv
    interface.o(.ARM.exidx) refers to interface.o(i._ZN9Interface12setBlackBallEP4Ball) for i._ZN9Interface12setBlackBallEP4Ball
    interface.o(.ARM.exidx) refers to interface.o(i._ZNK9Interface13getBallsArrayEv) for i._ZNK9Interface13getBallsArrayEv
    interface.o(.ARM.exidx) refers to interface.o(i._ZN9Interface13setBallsArrayEP9BallArray) for i._ZN9Interface13setBallsArrayEP9BallArray
    table.o(i._ZN5Table11nearestHoleE6Vector) refers to vector.o(i._ZN6Vector4getXEv) for Vector::getX()
    table.o(i._ZN5Table11nearestHoleE6Vector) refers to vector.o(i._ZN6Vector4getZEv) for Vector::getZ()
    table.o(i._ZN5Table11nearestHoleE6Vector) refers to f2d.o(x$fpl$f2d) for __aeabi_f2d
    table.o(i._ZN5Table11nearestHoleE6Vector) refers to drleqf.o(x$fpl$drleqf) for __aeabi_cdrcmple
    table.o(i._ZN5Table4drawEP7Display) refers to vector.o(i._ZN6Vector4getZEv) for Vector::getZ()
    table.o(i._ZN5Table4drawEP7Display) refers to vector.o(i._ZN6Vector4getXEv) for Vector::getX()
    table.o(i._ZN5Table4drawEP7Display) refers to adafruit_gfx.o(i._ZN12Adafruit_GFX10fillCircleEssst) for Adafruit_GFX::fillCircle(short, short, short, unsigned short)
    table.o(i._ZN5Table8holeAreaE6Vector) refers to vector.o(i._ZN6Vector4getXEv) for Vector::getX()
    table.o(i._ZN5Table8holeAreaE6Vector) refers to vector.o(i._ZN6Vector4getZEv) for Vector::getZ()
    table.o(i._ZN5Table8holeAreaE6Vector) refers to f2d.o(x$fpl$f2d) for __aeabi_f2d
    table.o(i._ZN5Table8holeAreaE6Vector) refers to dleqf.o(x$fpl$dleqf) for __aeabi_cdcmple
    table.o(i._ZN5Table8holeAreaE6Vector) refers to drleqf.o(x$fpl$drleqf) for __aeabi_cdrcmple
    table.o(i._ZN5TableC1Ev) refers to aeabi_vec_ctor_nocookie_nodtor.o(i.__aeabi_vec_ctor_nocookie_nodtor) for __aeabi_vec_ctor_nocookie_nodtor
    table.o(i._ZN5TableC1Ev) refers to vector.o(i._ZN6Vector9setVectorEff) for Vector::setVector(float, float)
    table.o(i._ZN5TableC1Ev) refers to vector.o(i._ZN6VectorC1Ev) for Vector::Vector()
    table.o(.ARM.exidx) refers to table.o(i._ZN5TableC1Ev) for i._ZN5TableC1Ev
    table.o(.ARM.exidx) refers to table.o(i._ZN5Table4drawEP7Display) for i._ZN5Table4drawEP7Display
    table.o(.ARM.exidx) refers to table.o(i._ZN5Table13getHoleCenterEi) for i._ZN5Table13getHoleCenterEi
    table.o(.ARM.exidx) refers to table.o(i._ZN5Table8holeAreaE6Vector) for i._ZN5Table8holeAreaE6Vector
    table.o(.ARM.exidx) refers to table.o(i._ZN5Table11nearestHoleE6Vector) for i._ZN5Table11nearestHoleE6Vector
    shot.o(.ARM.exidx) refers to shot.o(i._ZN4ShotC1Ev) for i._ZN4ShotC1Ev
    shot.o(.ARM.exidx) refers to shot.o(i._ZN4Shot6getStrEv) for i._ZN4Shot6getStrEv
    shot.o(.ARM.exidx) refers to shot.o(i._ZN4Shot8getAngleEv) for i._ZN4Shot8getAngleEv
    shot.o(.ARM.exidx) refers to shot.o(i._ZN4Shot6setStrEf) for i._ZN4Shot6setStrEf
    shot.o(.ARM.exidx) refers to shot.o(i._ZN4Shot8setAngleEf) for i._ZN4Shot8setAngleEf
    shot.o(.ARM.exidx) refers to shot.o(i._ZN4Shot8addAngleEf) for i._ZN4Shot8addAngleEf
    shot.o(.ARM.exidx) refers to shot.o(i._ZN4Shot6addStrEf) for i._ZN4Shot6addStrEf
    shot.o(.ARM.exidx) refers to shot.o(i._ZN4Shot6subStrEf) for i._ZN4Shot6subStrEf
    game.o(i._ZN4Game10processEndEv) refers to game.o(i._ZN4Game11illegalMoveEi) for Game::illegalMove(int)
    game.o(i._ZN4Game10processEndEv) refers to game.o(i._ZN4Game15updateBallCountEv) for Game::updateBallCount()
    game.o(i._ZN4Game10processEndEv) refers to interface.o(i._ZN9Interface15drawIllegalMoveEi) for Interface::drawIllegalMove(int)
    game.o(i._ZN4Game10processEndEv) refers to game.o(i._ZN4Game14killPlayerBallEi) for Game::killPlayerBall(int)
    game.o(i._ZN4Game10processEndEv) refers to game.o(i._ZN4Game14respawnCueBallEv) for Game::respawnCueBall()
    game.o(i._ZN4Game10processEndEv) refers to game.o(i._ZN4Game14processEndGameEi) for Game::processEndGame(int)
    game.o(i._ZN4Game10processEndEv) refers to ball.o(i._ZN9BallArray7getBallEi) for BallArray::getBall(int)
    game.o(i._ZN4Game10processEndEv) refers to ball.o(i._ZN4Ball6inGameEv) for Ball::inGame()
    game.o(i._ZN4Game10processEndEv) refers to game.o(i._ZN4Game5op_idEi) for Game::op_id(int)
    game.o(i._ZN4Game10processKeyE7btnId_t) refers to game.o(i._ZN4Game12setDirectionE7btnId_t) for Game::setDirection(btnId_t)
    game.o(i._ZN4Game10updateShotEv) refers to shot.o(i._ZN4Shot6setStrEf) for Shot::setStr(float)
    game.o(i._ZN4Game11executeShotEv) refers to physics.o(i._ZN7Physics10hitCueBallEP4BallP4Shot) for Physics::hitCueBall(Ball*, Shot*)
    game.o(i._ZN4Game11setStrengthEf) refers to game.o(i._ZN4Game10updateShotEv) for Game::updateShot()
    game.o(i._ZN4Game12applyPhysicsEv) refers to rtc_time.o(i.clock) for clock
    game.o(i._ZN4Game12applyPhysicsEv) refers to dflt_clz.o(x$fpl$dfltu) for __aeabi_ui2d
    game.o(i._ZN4Game12applyPhysicsEv) refers to daddsub_clz.o(x$fpl$dsub) for __aeabi_dsub
    game.o(i._ZN4Game12applyPhysicsEv) refers to ddiv.o(x$fpl$ddiv) for __aeabi_ddiv
    game.o(i._ZN4Game12applyPhysicsEv) refers to dleqf.o(x$fpl$dleqf) for __aeabi_cdcmple
    game.o(i._ZN4Game12applyPhysicsEv) refers to game.o(i._ZN4Game9turnEndedEv) for Game::turnEnded()
    game.o(i._ZN4Game12applyPhysicsEv) refers to game.o(i._ZN4Game16physicsInterfaceEv) for Game::physicsInterface()
    game.o(i._ZN4Game12applyPhysicsEv) refers to game.o(i._ZN4Game6isOverEv) for Game::isOver()
    game.o(i._ZN4Game12applyPhysicsEv) refers to game.o(i._ZN4Game14initializeGameEv) for Game::initializeGame()
    game.o(i._ZN4Game12checkCueBallEv) refers to ball.o(i._ZN4Ball6inGameEv) for Ball::inGame()
    game.o(i._ZN4Game12checkCueBallEv) refers to game.o(i._ZN4Game14respawnCueBallEv) for Game::respawnCueBall()
    game.o(i._ZN4Game12setDirectionE7btnId_t) refers to shot.o(i._ZN4Shot8addAngleEf) for Shot::addAngle(float)
    game.o(i._ZN4Game12setDirectionE7btnId_t) refers to interface.o(i._ZN9Interface7drawCueEP4Shotb) for Interface::drawCue(Shot*, bool)
    game.o(i._ZN4Game12setDirectionE7btnId_t) refers to game.o(i._ZN4Game10updateShotEv) for Game::updateShot()
    game.o(i._ZN4Game12setDirectionE7btnId_t) refers to game.o(i._ZN4Game11executeShotEv) for Game::executeShot()
    game.o(i._ZN4Game13drawSelectionEv) refers to interface.o(i._ZN9Interface7drawCueEP4Shotb) for Interface::drawCue(Shot*, bool)
    game.o(i._ZN4Game14initializeGameEv) refers to ball.o(i._ZN9BallArray19initializeBallArrayEi) for BallArray::initializeBallArray(int)
    game.o(i._ZN4Game14initializeGameEv) refers to ball.o(i._ZN9BallArray7getBallEi) for BallArray::getBall(int)
    game.o(i._ZN4Game14initializeGameEv) refers to interface.o(i._ZN9Interface13setBallsArrayEP9BallArray) for Interface::setBallsArray(BallArray*)
    game.o(i._ZN4Game14initializeGameEv) refers to interface.o(i._ZN9Interface10setCueBallEP4Ball) for Interface::setCueBall(Ball*)
    game.o(i._ZN4Game14initializeGameEv) refers to interface.o(i._ZN9Interface12setBlackBallEP4Ball) for Interface::setBlackBall(Ball*)
    game.o(i._ZN4Game14initializeGameEv) refers to interface.o(i._ZN9Interface8setTableEP5Table) for Interface::setTable(Table*)
    game.o(i._ZN4Game14initializeGameEv) refers to interface.o(i._ZN9Interface4initEv) for Interface::init()
    game.o(i._ZN4Game14killPlayerBallEi) refers to ball.o(i._ZN9BallArray7getBallEi) for BallArray::getBall(int)
    game.o(i._ZN4Game14killPlayerBallEi) refers to ball.o(i._ZN4Ball6inGameEv) for Ball::inGame()
    game.o(i._ZN4Game14killPlayerBallEi) refers to ball.o(i._ZN4Ball4killEv) for Ball::kill()
    game.o(i._ZN4Game14processEndGameEi) refers to interface.o(i._ZN9Interface9playerWonEi) for Interface::playerWon(int)
    game.o(i._ZN4Game14respawnCueBallEv) refers to shot.o(i._ZN4Shot8setAngleEf) for Shot::setAngle(float)
    game.o(i._ZN4Game14respawnCueBallEv) refers to ball.o(i._ZN4Ball13whitePositionEv) for Ball::whitePosition()
    game.o(i._ZN4Game14respawnCueBallEv) refers to ball.o(i._ZN4Ball9putInGameEv) for Ball::putInGame()
    game.o(i._ZN4Game14respawnCueBallEv) refers to physics.o(i._ZN7Physics16respawnCollisionEP5TableP9BallArrayb) for Physics::respawnCollision(Table*, BallArray*, bool)
    game.o(i._ZN4Game14respawnCueBallEv) refers to game.o(i._ZN4Game13drawSelectionEv) for Game::drawSelection()
    game.o(i._ZN4Game14respawnCueBallEv) refers to ball.o(i._ZN4Ball12getZPositionEv) for Ball::getZPosition()
    game.o(i._ZN4Game14respawnCueBallEv) refers to ball.o(i._ZN4Ball12setYPositionEf) for Ball::setYPosition(float)
    game.o(i._ZN4Game15updateBallCountEv) refers to ball.o(i._ZN9BallArray7getBallEi) for BallArray::getBall(int)
    game.o(i._ZN4Game15updateBallCountEv) refers to ball.o(i._ZN4Ball6inGameEv) for Ball::inGame()
    game.o(i._ZN4Game16physicsInterfaceEv) refers to ball.o(i._ZN9BallArray7getBallEi) for BallArray::getBall(int)
    game.o(i._ZN4Game16physicsInterfaceEv) refers to ball.o(i._ZN4Ball6inGameEv) for Ball::inGame()
    game.o(i._ZN4Game16physicsInterfaceEv) refers to physics.o(i._ZN7Physics8movementEP4Ball) for Physics::movement(Ball*)
    game.o(i._ZN4Game16physicsInterfaceEv) refers to physics.o(i._ZN7Physics17holeAreaCollisionEP5TableP4Ball) for Physics::holeAreaCollision(Table*, Ball*)
    game.o(i._ZN4Game16physicsInterfaceEv) refers to physics.o(i._ZN7Physics14tableCollisionEP5TableP4Ball) for Physics::tableCollision(Table*, Ball*)
    game.o(i._ZN4Game16physicsInterfaceEv) refers to physics.o(i._ZN7Physics17getCollisionOrderEP9BallArrayi) for Physics::getCollisionOrder(BallArray*, int)
    game.o(i._ZN4Game16physicsInterfaceEv) refers to physics.o(i._ZN7Physics12getCollisionEv) for Physics::getCollision()
    game.o(i._ZN4Game16physicsInterfaceEv) refers to physics.o(i._ZN7Physics13ballCollisionEP4BallS1_) for Physics::ballCollision(Ball*, Ball*)
    game.o(i._ZN4Game16physicsInterfaceEv) refers to ball.o(i._ZN4Ball9getNumberEv) for Ball::getNumber()
    game.o(i._ZN4Game16physicsInterfaceEv) refers to physics.o(i._ZN7Physics13hasCollisionsEv) for Physics::hasCollisions()
    game.o(i._ZN4Game16physicsInterfaceEv) refers to ball.o(i._ZN9BallArray7getSizeEv) for BallArray::getSize()
    game.o(i._ZN4Game4drawEv) refers to interface.o(i._ZN9Interface4initEv) for Interface::init()
    game.o(i._ZN4Game4drawEv) refers to interface.o(i._ZN9Interface9drawTableEv) for Interface::drawTable()
    game.o(i._ZN4Game4drawEv) refers to interface.o(i._ZN9Interface9drawBallsEv) for Interface::drawBalls()
    game.o(i._ZN4Game4drawEv) refers to interface.o(i._ZN9Interface10playerTurnEi) for Interface::playerTurn(int)
    game.o(i._ZN4Game4drawEv) refers to interface.o(i._ZN9Interface16drawShotStrengthEf) for Interface::drawShotStrength(float)
    game.o(i._ZN4Game4loopEv) refers to game.o(i._ZN4Game12checkCueBallEv) for Game::checkCueBall()
    game.o(i._ZN4Game4loopEv) refers to game.o(i._ZN4Game8drawShotEv) for Game::drawShot()
    game.o(i._ZN4Game4loopEv) refers to game.o(i._ZN4Game12applyPhysicsEv) for Game::applyPhysics()
    game.o(i._ZN4Game6isOverEv) refers to ball.o(i._ZN9BallArray7getBallEi) for BallArray::getBall(int)
    game.o(i._ZN4Game6isOverEv) refers to ball.o(i._ZN4Ball6inGameEv) for Ball::inGame()
    game.o(i._ZN4Game6isOverEv) refers to ball.o(i._ZN9BallArray7getSizeEv) for BallArray::getSize()
    game.o(i._ZN4Game8drawShotEv) refers to interface.o(i._ZN9Interface7drawCueEP4Shotb) for Interface::drawCue(Shot*, bool)
    game.o(i._ZN4Game9turnEndedEv) refers to ball.o(i._ZN9BallArray7getBallEi) for BallArray::getBall(int)
    game.o(i._ZN4Game9turnEndedEv) refers to ball.o(i._ZN4Ball6inGameEv) for Ball::inGame()
    game.o(i._ZN4Game9turnEndedEv) refers to ball.o(i._ZN4Ball8isMovingEv) for Ball::isMoving()
    game.o(i._ZN4Game9turnEndedEv) refers to ball.o(i._ZN9BallArray7getSizeEv) for BallArray::getSize()
    game.o(i._ZN4Game9turnEndedEv) refers to game.o(i._ZN4Game10processEndEv) for Game::processEnd()
    game.o(i._ZN4Game9turnEndedEv) refers to game.o(i._ZN4Game5op_idEi) for Game::op_id(int)
    game.o(i._ZN4Game9turnEndedEv) refers to interface.o(i._ZN9Interface10playerTurnEi) for Interface::playerTurn(int)
    game.o(i._ZN4GameC1EP7Display) refers to game.o(i._ZN6PlayerC1Ev) for Player::Player()
    game.o(i._ZN4GameC1EP7Display) refers to shot.o(i._ZN4ShotC1Ev) for Shot::Shot()
    game.o(i._ZN4GameC1EP7Display) refers to table.o(i._ZN5TableC1Ev) for Table::Table()
    game.o(i._ZN4GameC1EP7Display) refers to game.o(i._ZN9BallArrayC1Ev) for BallArray::BallArray()
    game.o(i._ZN4GameC1EP7Display) refers to interface.o(i._ZN9InterfaceC1Ev) for Interface::Interface()
    game.o(i._ZN4GameC1EP7Display) refers to physics.o(i._ZN7PhysicsC1Ev) for Physics::Physics()
    game.o(i._ZN4GameC1EP7Display) refers to game.o(i._ZN13ExpandedTimerC1Ev) for ExpandedTimer::ExpandedTimer()
    game.o(i._ZN4GameC1EP7Display) refers to interface.o(i._ZN9InterfaceC1EP7Display) for Interface::Interface(Display*)
    game.o(i._ZN4GameC1EP7Display) refers to game.o(i._ZN6PlayerC1Eii) for Player::Player(int, int)
    game.o(i._ZN4GameC1EP7Display) refers to game.o(i._ZN4Game14initializeGameEv) for Game::initializeGame()
    game.o(i._ZN4GameC1EP7Display) refers to interface.o(i._ZN9InterfaceD1Ev) for Interface::~Interface()
    game.o(i._ZN4GameC1Ev) refers to game.o(i._ZN6PlayerC1Ev) for Player::Player()
    game.o(i._ZN4GameC1Ev) refers to shot.o(i._ZN4ShotC1Ev) for Shot::Shot()
    game.o(i._ZN4GameC1Ev) refers to table.o(i._ZN5TableC1Ev) for Table::Table()
    game.o(i._ZN4GameC1Ev) refers to game.o(i._ZN9BallArrayC1Ev) for BallArray::BallArray()
    game.o(i._ZN4GameC1Ev) refers to interface.o(i._ZN9InterfaceC1Ev) for Interface::Interface()
    game.o(i._ZN4GameC1Ev) refers to physics.o(i._ZN7PhysicsC1Ev) for Physics::Physics()
    game.o(i._ZN4GameC1Ev) refers to game.o(i._ZN13ExpandedTimerC1Ev) for ExpandedTimer::ExpandedTimer()
    game.o(i._ZN4GameC1Ev) refers to game.o(i._ZN6PlayerC1Eii) for Player::Player(int, int)
    game.o(i._ZN4GameC1Ev) refers to game.o(i._ZN4Game14initializeGameEv) for Game::initializeGame()
    game.o(.ARM.exidx) refers to game.o(i._ZN6PlayerC1Ev) for i._ZN6PlayerC1Ev
    game.o(.ARM.exidx) refers to game.o(i._ZN6PlayerC1Eii) for i._ZN6PlayerC1Eii
    game.o(.ARM.exidx) refers to game.o(i._ZN4Game11executeShotEv) for i._ZN4Game11executeShotEv
    game.o(.ARM.exidx) refers to game.o(i._ZN4Game10updateShotEv) for i._ZN4Game10updateShotEv
    game.o(.ARM.exidx) refers to game.o(i._ZN4Game12setDirectionE7btnId_t) for i._ZN4Game12setDirectionE7btnId_t
    game.o(.ARM.exidx) refers to game.o(i._ZN4Game14initializeGameEv) for i._ZN4Game14initializeGameEv
    game.o(.ARM.exidx) refers to game.o(i._ZN4Game6isOverEv) for i._ZN4Game6isOverEv
    game.o(.ARM.exidx) refers to game.o(i._ZN4Game16physicsInterfaceEv) for i._ZN4Game16physicsInterfaceEv
    game.o(.ARM.exidx) refers to game.o(i._ZN4Game5op_idEi) for i._ZN4Game5op_idEi
    game.o(.ARM.exidx) refers to game.o(i._ZN4Game14processEndGameEi) for i._ZN4Game14processEndGameEi
    game.o(.ARM.exidx) refers to game.o(i._ZN4Game13drawSelectionEv) for i._ZN4Game13drawSelectionEv
    game.o(.ARM.exidx) refers to game.o(i._ZN4Game14respawnCueBallEv) for i._ZN4Game14respawnCueBallEv
    game.o(.ARM.exidx) refers to game.o(i._ZN4Game14killPlayerBallEi) for i._ZN4Game14killPlayerBallEi
    game.o(.ARM.exidx) refers to game.o(i._ZN4Game15updateBallCountEv) for i._ZN4Game15updateBallCountEv
    game.o(.ARM.exidx) refers to game.o(i._ZN4Game11illegalMoveEi) for i._ZN4Game11illegalMoveEi
    game.o(.ARM.exidx) refers to game.o(i._ZN4Game10processEndEv) for i._ZN4Game10processEndEv
    game.o(.ARM.exidx) refers to game.o(i._ZN4Game9turnEndedEv) for i._ZN4Game9turnEndedEv
    game.o(.ARM.exidx) refers to game.o(i._ZN4Game12applyPhysicsEv) for i._ZN4Game12applyPhysicsEv
    game.o(.ARM.exidx) refers to game.o(i._ZN4Game12checkCueBallEv) for i._ZN4Game12checkCueBallEv
    game.o(.ARM.exidx) refers to game.o(i._ZN4Game8drawShotEv) for i._ZN4Game8drawShotEv
    game.o(.ARM.exidx) refers to game.o(i._ZN4GameC1Ev) for i._ZN4GameC1Ev
    game.o(.ARM.exidx) refers to game.o(i._ZN4GameC1EP7Display) for i._ZN4GameC1EP7Display
    game.o(.ARM.exidx) refers to game.o(i._ZN4Game10SetDisplayEP7Display) for i._ZN4Game10SetDisplayEP7Display
    game.o(.ARM.exidx) refers to game.o(i._ZN4Game10processKeyE7btnId_t) for i._ZN4Game10processKeyE7btnId_t
    game.o(.ARM.exidx) refers to game.o(i._ZN4Game4loopEv) for i._ZN4Game4loopEv
    game.o(.ARM.exidx) refers to game.o(i._ZN4Game4drawEv) for i._ZN4Game4drawEv
    game.o(.ARM.exidx) refers to game.o(i._ZN4Game11setStrengthEf) for i._ZN4Game11setStrengthEf
    cue.o(i._ZN3Cue4drawEP7DisplayP4Shot6Vector) refers to vector.o(i._ZN6VectorC1Ev) for Vector::Vector()
    cue.o(i._ZN3Cue4drawEP7DisplayP4Shot6Vector) refers to shot.o(i._ZN4Shot8getAngleEv) for Shot::getAngle()
    cue.o(i._ZN3Cue4drawEP7DisplayP4Shot6Vector) refers to shot.o(i._ZN4Shot6getStrEv) for Shot::getStr()
    cue.o(i._ZN3Cue4drawEP7DisplayP4Shot6Vector) refers to f2d.o(x$fpl$f2d) for __aeabi_f2d
    cue.o(i._ZN3Cue4drawEP7DisplayP4Shot6Vector) refers to dmul.o(x$fpl$dmul) for __aeabi_dmul
    cue.o(i._ZN3Cue4drawEP7DisplayP4Shot6Vector) refers to ddiv.o(x$fpl$ddiv) for __aeabi_ddiv
    cue.o(i._ZN3Cue4drawEP7DisplayP4Shot6Vector) refers to sin.o(i.__hardfp_sin) for __hardfp_sin
    cue.o(i._ZN3Cue4drawEP7DisplayP4Shot6Vector) refers to d2f.o(x$fpl$d2f) for __aeabi_d2f
    cue.o(i._ZN3Cue4drawEP7DisplayP4Shot6Vector) refers to vector.o(i._ZN6Vector4setXEf) for Vector::setX(float)
    cue.o(i._ZN3Cue4drawEP7DisplayP4Shot6Vector) refers to cos.o(i.__hardfp_cos) for __hardfp_cos
    cue.o(i._ZN3Cue4drawEP7DisplayP4Shot6Vector) refers to vector.o(i._ZN6Vector4setZEf) for Vector::setZ(float)
    cue.o(i._ZN3Cue4drawEP7DisplayP4Shot6Vector) refers to vector.o(i._ZN6Vector13terminalPointEPS_) for Vector::terminalPoint(Vector*)
    cue.o(i._ZN3Cue4drawEP7DisplayP4Shot6Vector) refers to cue.o(i._ZN3Cue11setPositionE6Vector) for Cue::setPosition(Vector)
    cue.o(i._ZN3Cue4drawEP7DisplayP4Shot6Vector) refers to vector.o(i._ZN6Vector4getZEv) for Vector::getZ()
    cue.o(i._ZN3Cue4drawEP7DisplayP4Shot6Vector) refers to vector.o(i._ZN6Vector4getXEv) for Vector::getX()
    cue.o(i._ZN3Cue9rotateCueEf) refers to vector.o(i._ZN6Vector14vectorRotationEf) for Vector::vectorRotation(float)
    cue.o(i._ZN3CueC1Ev) refers to vector.o(i._ZN6VectorC1Ev) for Vector::Vector()
    cue.o(i._ZN3CueC1Ev) refers to cue.o(.constdata__ZTV3Cue) for vtable for Cue
    cue.o(i._ZN3CueD0Ev) refers to cue.o(i._ZN3CueD1Ev) for Cue::~Cue()
    cue.o(i._ZN3CueD0Ev) refers to delete.o(i._ZdlPv) for operator delete (void*)
    cue.o(.ARM.exidx) refers to cue.o(i._ZN3CueC1Ev) for i._ZN3CueC1Ev
    cue.o(.ARM.exidx) refers to cue.o(i._ZN3CueD1Ev) for i._ZN3CueD1Ev
    cue.o(.ARM.exidx) refers to cue.o(i._ZN3CueD0Ev) for i._ZN3CueD0Ev
    cue.o(.ARM.exidx) refers to cue.o(i._ZN3Cue4initEv) for i._ZN3Cue4initEv
    cue.o(.ARM.exidx) refers to cue.o(i._ZN3Cue11setPositionE6Vector) for i._ZN3Cue11setPositionE6Vector
    cue.o(.ARM.exidx) refers to cue.o(i._ZN3Cue4drawEP7DisplayP4Shot6Vector) for i._ZN3Cue4drawEP7DisplayP4Shot6Vector
    cue.o(.ARM.exidx) refers to cue.o(i._ZNK3Cue11getPositionEv) for i._ZNK3Cue11getPositionEv
    cue.o(.ARM.exidx) refers to cue.o(i._ZNK3Cue8getAngleEv) for i._ZNK3Cue8getAngleEv
    cue.o(.ARM.exidx) refers to cue.o(i._ZN3Cue8setAngleEf) for i._ZN3Cue8setAngleEf
    cue.o(.ARM.exidx) refers to cue.o(i._ZN3Cue9rotateCueEf) for i._ZN3Cue9rotateCueEf
    cue.o(.ARM.exidx) refers to cue.o(i._ZNK3Cue11getStrengthEv) for i._ZNK3Cue11getStrengthEv
    cue.o(.ARM.exidx) refers to cue.o(i._ZN3Cue11setStrengthEf) for i._ZN3Cue11setStrengthEf
    startup_lpc407x_8x_177x_8x.o(RESET) refers to startup_lpc407x_8x_177x_8x.o(.text) for Reset_Handler
    startup_lpc407x_8x_177x_8x.o(.text) refers to system_lpc407x_8x_177x_8x.o(i.SystemInit) for SystemInit
    startup_lpc407x_8x_177x_8x.o(.text) refers to __main.o(!!!main) for __main
    system_lpc407x_8x_177x_8x.o(i.SystemCoreClockUpdate) refers to system_lpc407x_8x_177x_8x.o(.data) for SystemCoreClock
    system_lpc407x_8x_177x_8x.o(i.SystemInit) refers to system_lpc407x_8x_177x_8x.o(i.fpu_init) for fpu_init
    system_lpc407x_8x_177x_8x.o(i.SystemInit) refers to system_lpc407x_8x_177x_8x.o(i.SystemCoreClockUpdate) for SystemCoreClockUpdate
    sys.o(i.__user_setup_stackheap) refers to sdram.o(i.__reserved_stack_size) for __reserved_stack_size
    sys.o(.ARM.exidx) refers to sys.o(i.__user_setup_stackheap) for i.__user_setup_stackheap
    sys_helper.o(.ARM.exidx) refers to sys_helper.o(i.__reserved_stack_size) for i.__reserved_stack_size
    assert.o(i.mbed_assert_internal) refers to error.o(i.error) for error
    gpio.o(i._gpio_init_in) refers to gpio_api.o(i.gpio_init) for gpio_init
    gpio.o(i._gpio_init_in) refers to gpio_api.o(i.gpio_dir) for gpio_dir
    gpio.o(i._gpio_init_in) refers to gpio_api.o(i.gpio_mode) for gpio_mode
    gpio.o(i._gpio_init_out) refers to gpio_api.o(i.gpio_init) for gpio_init
    gpio.o(i._gpio_init_out) refers to gpio.o(i.gpio_write) for gpio_write
    gpio.o(i._gpio_init_out) refers to gpio_api.o(i.gpio_dir) for gpio_dir
    gpio.o(i._gpio_init_out) refers to gpio_api.o(i.gpio_mode) for gpio_mode
    gpio.o(i.gpio_init_in) refers to gpio.o(i.gpio_init_in_ex) for gpio_init_in_ex
    gpio.o(i.gpio_init_in_ex) refers to gpio.o(i._gpio_init_in) for _gpio_init_in
    gpio.o(i.gpio_init_inout) refers to gpio.o(i._gpio_init_in) for _gpio_init_in
    gpio.o(i.gpio_init_inout) refers to gpio.o(i.gpio_write) for gpio_write
    gpio.o(i.gpio_init_inout) refers to gpio.o(i._gpio_init_out) for _gpio_init_out
    gpio.o(i.gpio_init_out) refers to gpio.o(i.gpio_init_out_ex) for gpio_init_out_ex
    gpio.o(i.gpio_init_out_ex) refers to gpio.o(i._gpio_init_out) for _gpio_init_out
    gpio.o(i.gpio_write) refers to assert.o(i.mbed_assert_internal) for mbed_assert_internal
    rtc_time.o(i.attach_rtc) refers to rtc_time.o(.data) for _rtc_read
    rtc_time.o(i.clock) refers to us_ticker.o(i.us_ticker_read) for us_ticker_read
    rtc_time.o(i.set_time) refers to rtc_time.o(.data) for _rtc_init
    rtc_time.o(i.time) refers to rtc_time.o(i.set_time) for set_time
    rtc_time.o(i.time) refers to rtc_time.o(.data) for _rtc_isenabled
    rtc_time.o(.data) refers to rtc_api.o(i.rtc_init) for rtc_init
    rtc_time.o(.data) refers to rtc_api.o(i.rtc_isenabled) for rtc_isenabled
    rtc_time.o(.data) refers to rtc_api.o(i.rtc_read) for rtc_read
    rtc_time.o(.data) refers to rtc_api.o(i.rtc_write) for rtc_write
    wait_api.o(i.wait) refers to wait_api.o(i.wait_us) for wait_us
    wait_api.o(i.wait_ms) refers to wait_api.o(i.wait_us) for wait_us
    wait_api.o(i.wait_us) refers to us_ticker.o(i.us_ticker_read) for us_ticker_read
    ethernet.o(i._ZN4mbed8Ethernet4linkEv) refers to ethernet_api.o(i.ethernet_link) for ethernet_link
    ethernet.o(i._ZN4mbed8Ethernet4readEPci) refers to ethernet_api.o(i.ethernet_read) for ethernet_read
    ethernet.o(i._ZN4mbed8Ethernet4sendEv) refers to ethernet_api.o(i.ethernet_send) for ethernet_send
    ethernet.o(i._ZN4mbed8Ethernet5writeEPKci) refers to ethernet_api.o(i.ethernet_write) for ethernet_write
    ethernet.o(i._ZN4mbed8Ethernet7addressEPc) refers to ethernet_api.o(i.ethernet_address) for ethernet_address
    ethernet.o(i._ZN4mbed8Ethernet7receiveEv) refers to ethernet_api.o(i.ethernet_receive) for ethernet_receive
    ethernet.o(i._ZN4mbed8Ethernet8set_linkENS0_4ModeE) refers to ethernet_api.o(i.ethernet_set_link) for ethernet_set_link
    ethernet.o(i._ZN4mbed8EthernetC1Ev) refers to ethernet_api.o(i.ethernet_init) for ethernet_init
    ethernet.o(i._ZN4mbed8EthernetC1Ev) refers to ethernet.o(.constdata__ZTVN4mbed8EthernetE) for vtable for mbed::Ethernet
    ethernet.o(i._ZN4mbed8EthernetD0Ev) refers to ethernet.o(i._ZN4mbed8EthernetD1Ev) for mbed::Ethernet::~Ethernet()
    ethernet.o(i._ZN4mbed8EthernetD0Ev) refers to delete.o(i._ZdlPv) for operator delete (void*)
    ethernet.o(i._ZN4mbed8EthernetD1Ev) refers to ethernet_api.o(i.ethernet_free) for ethernet_free
    ethernet.o(i._ZN4mbed8EthernetD1Ev) refers to ethernet.o(.constdata__ZTVN4mbed8EthernetE) for vtable for mbed::Ethernet
    ethernet.o(.ARM.exidx) refers to ethernet.o(i._ZN4mbed8EthernetC1Ev) for i._ZN4mbed8EthernetC1Ev
    ethernet.o(.ARM.exidx) refers to ethernet.o(i._ZN4mbed8EthernetD1Ev) for i._ZN4mbed8EthernetD1Ev
    ethernet.o(.ARM.exidx) refers to ethernet.o(i._ZN4mbed8EthernetD0Ev) for i._ZN4mbed8EthernetD0Ev
    ethernet.o(.ARM.exidx) refers to ethernet.o(i._ZN4mbed8Ethernet5writeEPKci) for i._ZN4mbed8Ethernet5writeEPKci
    ethernet.o(.ARM.exidx) refers to ethernet.o(i._ZN4mbed8Ethernet4sendEv) for i._ZN4mbed8Ethernet4sendEv
    ethernet.o(.ARM.exidx) refers to ethernet.o(i._ZN4mbed8Ethernet7receiveEv) for i._ZN4mbed8Ethernet7receiveEv
    ethernet.o(.ARM.exidx) refers to ethernet.o(i._ZN4mbed8Ethernet4readEPci) for i._ZN4mbed8Ethernet4readEPci
    ethernet.o(.ARM.exidx) refers to ethernet.o(i._ZN4mbed8Ethernet7addressEPc) for i._ZN4mbed8Ethernet7addressEPc
    ethernet.o(.ARM.exidx) refers to ethernet.o(i._ZN4mbed8Ethernet4linkEv) for i._ZN4mbed8Ethernet4linkEv
    ethernet.o(.ARM.exidx) refers to ethernet.o(i._ZN4mbed8Ethernet8set_linkENS0_4ModeE) for i._ZN4mbed8Ethernet8set_linkENS0_4ModeE
    stream.o(i._ZN4mbed6Stream4getcEv) refers to fflush.o(.text) for fflush
    stream.o(i._ZN4mbed6Stream4getcEv) refers to retarget.o(i._ZN4mbed9mbed_getcEPSt6__FILE) for mbed::mbed_getc(std::__FILE*)
    stream.o(i._ZN4mbed6Stream4getsEPci) refers to fflush.o(.text) for fflush
    stream.o(i._ZN4mbed6Stream4getsEPci) refers to retarget.o(i._ZN4mbed9mbed_getsEPciPSt6__FILE) for mbed::mbed_gets(char*, int, std::__FILE*)
    stream.o(i._ZN4mbed6Stream4putcEi) refers to fflush.o(.text) for fflush
    stream.o(i._ZN4mbed6Stream4putcEi) refers to fputc.o(i.fputc) for fputc
    stream.o(i._ZN4mbed6Stream4putsEPKc) refers to fflush.o(.text) for fflush
    stream.o(i._ZN4mbed6Stream4putsEPKc) refers to fputs.o(.text) for fputs
    stream.o(i._ZN4mbed6Stream5scanfEPKcz) refers to fflush.o(.text) for fflush
    stream.o(i._ZN4mbed6Stream5scanfEPKcz) refers to vfscanf.o(.text) for vfscanf
    stream.o(i._ZN4mbed6Stream6printfEPKcz) refers to fflush.o(.text) for fflush
    stream.o(i._ZN4mbed6Stream6printfEPKcz) refers to c89vfprintf.o(.text) for __c89vfprintf
    stream.o(i._ZN4mbed6StreamC2EPKc) refers to _printf_percent.o(.ARM.Collect$$_printf_percent$$00000000) for _printf_percent
    stream.o(i._ZN4mbed6StreamC2EPKc) refers to _printf_p.o(.ARM.Collect$$_printf_percent$$00000002) for _printf_p
    stream.o(i._ZN4mbed6StreamC2EPKc) refers to _printf_hex_int_ll_ptr.o(.text) for _printf_longlong_hex
    stream.o(i._ZN4mbed6StreamC2EPKc) refers to filelike.o(i._ZN4mbed8FileLikeC2EPKc) for mbed::FileLike::FileLike__sub_object(const char*)
    stream.o(i._ZN4mbed6StreamC2EPKc) refers to __2sprintf.o(.text) for __2sprintf
    stream.o(i._ZN4mbed6StreamC2EPKc) refers to fopen.o(.text) for fopen
    stream.o(i._ZN4mbed6StreamC2EPKc) refers to retarget.o(i._ZN4mbed26mbed_set_unbuffered_streamEPSt6__FILE) for mbed::mbed_set_unbuffered_stream(std::__FILE*)
    stream.o(i._ZN4mbed6StreamC2EPKc) refers to stream.o(.constdata__ZTVN4mbed6StreamE) for vtable for mbed::Stream
    stream.o(i._ZN4mbed6StreamD0Ev) refers to stream.o(i._ZN4mbed6StreamD2Ev) for mbed::Stream::~Stream__sub_object()
    stream.o(i._ZN4mbed6StreamD0Ev) refers to delete.o(i._ZdlPv) for operator delete (void*)
    stream.o(i._ZN4mbed6StreamD2Ev) refers to fclose.o(.text) for fclose
    stream.o(i._ZN4mbed6StreamD2Ev) refers to filelike.o(i._ZN4mbed8FileLikeD2Ev) for mbed::FileLike::~FileLike__sub_object()
    stream.o(i._ZN4mbed6StreamD2Ev) refers to stream.o(.constdata__ZTVN4mbed6StreamE) for vtable for mbed::Stream
    stream.o(i._ZThn4_N4mbed6StreamD0Ev) refers to stream.o(i._ZN4mbed6StreamD0Ev) for mbed::Stream::~Stream__deallocating()
    stream.o(i._ZThn4_N4mbed6StreamD1Ev) refers to stream.o(i._ZN4mbed6StreamD2Ev) for mbed::Stream::~Stream__sub_object()
    stream.o(.ARM.exidx) refers to stream.o(i._ZN4mbed6StreamC2EPKc) for i._ZN4mbed6StreamC2EPKc
    stream.o(.ARM.exidx) refers to stream.o(i._ZN4mbed6StreamD2Ev) for i._ZN4mbed6StreamD2Ev
    stream.o(.ARM.exidx) refers to stream.o(i._ZN4mbed6StreamD0Ev) for i._ZN4mbed6StreamD0Ev
    stream.o(.ARM.exidx) refers to stream.o(i._ZThn4_N4mbed6StreamD0Ev) for i._ZThn4_N4mbed6StreamD0Ev
    stream.o(.ARM.exidx) refers to stream.o(i._ZThn4_N4mbed6StreamD1Ev) for i._ZThn4_N4mbed6StreamD1Ev
    stream.o(.ARM.exidx) refers to stream.o(i._ZN4mbed6Stream4putcEi) for i._ZN4mbed6Stream4putcEi
    stream.o(.ARM.exidx) refers to stream.o(i._ZN4mbed6Stream4putsEPKc) for i._ZN4mbed6Stream4putsEPKc
    stream.o(.ARM.exidx) refers to stream.o(i._ZN4mbed6Stream4getcEv) for i._ZN4mbed6Stream4getcEv
    stream.o(.ARM.exidx) refers to stream.o(i._ZN4mbed6Stream4getsEPci) for i._ZN4mbed6Stream4getsEPci
    stream.o(.ARM.exidx) refers to stream.o(i._ZN4mbed6Stream6printfEPKcz) for i._ZN4mbed6Stream6printfEPKcz
    stream.o(.ARM.exidx) refers to stream.o(i._ZN4mbed6Stream5scanfEPKcz) for i._ZN4mbed6Stream5scanfEPKcz
    stream.o(.ARM.exidx) refers to stream.o(i._ZN4mbed6Stream5closeEv) for i._ZN4mbed6Stream5closeEv
    stream.o(.ARM.exidx) refers to stream.o(i._ZN4mbed6Stream5writeEPKvj) for i._ZN4mbed6Stream5writeEPKvj
    stream.o(.ARM.exidx) refers to stream.o(i._ZN4mbed6Stream4readEPvj) for i._ZN4mbed6Stream4readEPvj
    stream.o(.ARM.exidx) refers to stream.o(i._ZN4mbed6Stream5lseekEli) for i._ZN4mbed6Stream5lseekEli
    stream.o(.ARM.exidx) refers to stream.o(i._ZN4mbed6Stream6isattyEv) for i._ZN4mbed6Stream6isattyEv
    stream.o(.ARM.exidx) refers to stream.o(i._ZN4mbed6Stream5fsyncEv) for i._ZN4mbed6Stream5fsyncEv
    stream.o(.ARM.exidx) refers to stream.o(i._ZN4mbed6Stream4flenEv) for i._ZN4mbed6Stream4flenEv
    analogin_api.o(i.adc_read_u32) refers to analogin_api.o(i.adc_read) for adc_read
    analogin_api.o(i.adc_read_u32) refers to analogin_api.o(i.order) for order
    analogin_api.o(i.analogin_init) refers to pinmap_common.o(i.pinmap_peripheral) for pinmap_peripheral
    analogin_api.o(i.analogin_init) refers to assert.o(i.mbed_assert_internal) for mbed_assert_internal
    analogin_api.o(i.analogin_init) refers to pinmap_common.o(i.pinmap_pinout) for pinmap_pinout
    analogin_api.o(i.analogin_init) refers to analogin_api.o(.constdata) for PinMap_ADC
    analogin_api.o(i.analogin_init) refers to analogin_api.o(.conststring) for .conststring
    analogin_api.o(i.analogin_init) refers to system_lpc407x_8x_177x_8x.o(.data) for PeripheralClock
    analogin_api.o(i.analogin_read) refers to analogin_api.o(i.adc_read_u32) for adc_read_u32
    analogin_api.o(i.analogin_read_u16) refers to analogin_api.o(i.adc_read_u32) for adc_read_u32
    adafruit_gfx.o(i._ZN12Adafruit_GFX10fillCircleEssst) refers to adafruit_gfx.o(i._ZN12Adafruit_GFX16fillCircleHelperEssshst) for Adafruit_GFX::fillCircleHelper(short, short, short, unsigned char, short, unsigned short)
    adafruit_gfx.o(i._ZN12Adafruit_GFX13drawRoundRectEssssst) refers to adafruit_gfx.o(i._ZN12Adafruit_GFX16drawCircleHelperEsssht) for Adafruit_GFX::drawCircleHelper(short, short, short, unsigned char, unsigned short)
    adafruit_gfx.o(i._ZN12Adafruit_GFX13fillRoundRectEssssst) refers to adafruit_gfx.o(i._ZN12Adafruit_GFX16fillCircleHelperEssshst) for Adafruit_GFX::fillCircleHelper(short, short, short, unsigned char, short, unsigned short)
    adafruit_gfx.o(i._ZN12Adafruit_GFX5writeEh) refers to adafruit_gfx.o(i._ZN12Adafruit_GFX8drawCharEsshtth) for Adafruit_GFX::drawChar(short, short, unsigned char, unsigned short, unsigned short, unsigned char)
    adafruit_gfx.o(i._ZN12Adafruit_GFX8drawCharEsshtth) refers to adafruit_gfx.o(.constdata) for font
    adafruit_gfx.o(i._ZN12Adafruit_GFXC2Ess) refers to adafruit_gfx.o(.constdata__ZTV12Adafruit_GFX) for vtable for Adafruit_GFX
    adafruit_gfx.o(.ARM.exidx) refers to adafruit_gfx.o(i._ZN12Adafruit_GFXC2Ess) for i._ZN12Adafruit_GFXC2Ess
    adafruit_gfx.o(.ARM.exidx) refers to adafruit_gfx.o(i._ZN12Adafruit_GFX8drawLineEsssst) for i._ZN12Adafruit_GFX8drawLineEsssst
    adafruit_gfx.o(.ARM.exidx) refers to adafruit_gfx.o(i._ZN12Adafruit_GFX13drawFastVLineEssst) for i._ZN12Adafruit_GFX13drawFastVLineEssst
    adafruit_gfx.o(.ARM.exidx) refers to adafruit_gfx.o(i._ZN12Adafruit_GFX13drawFastHLineEssst) for i._ZN12Adafruit_GFX13drawFastHLineEssst
    adafruit_gfx.o(.ARM.exidx) refers to adafruit_gfx.o(i._ZN12Adafruit_GFX8drawRectEsssst) for i._ZN12Adafruit_GFX8drawRectEsssst
    adafruit_gfx.o(.ARM.exidx) refers to adafruit_gfx.o(i._ZN12Adafruit_GFX8fillRectEsssst) for i._ZN12Adafruit_GFX8fillRectEsssst
    adafruit_gfx.o(.ARM.exidx) refers to adafruit_gfx.o(i._ZN12Adafruit_GFX10fillScreenEt) for i._ZN12Adafruit_GFX10fillScreenEt
    adafruit_gfx.o(.ARM.exidx) refers to adafruit_gfx.o(i._ZN12Adafruit_GFX13invertDisplayEb) for i._ZN12Adafruit_GFX13invertDisplayEb
    adafruit_gfx.o(.ARM.exidx) refers to adafruit_gfx.o(i._ZN12Adafruit_GFX10drawCircleEssst) for i._ZN12Adafruit_GFX10drawCircleEssst
    adafruit_gfx.o(.ARM.exidx) refers to adafruit_gfx.o(i._ZN12Adafruit_GFX16drawCircleHelperEsssht) for i._ZN12Adafruit_GFX16drawCircleHelperEsssht
    adafruit_gfx.o(.ARM.exidx) refers to adafruit_gfx.o(i._ZN12Adafruit_GFX16fillCircleHelperEssshst) for i._ZN12Adafruit_GFX16fillCircleHelperEssshst
    adafruit_gfx.o(.ARM.exidx) refers to adafruit_gfx.o(i._ZN12Adafruit_GFX10fillCircleEssst) for i._ZN12Adafruit_GFX10fillCircleEssst
    adafruit_gfx.o(.ARM.exidx) refers to adafruit_gfx.o(i._ZN12Adafruit_GFX12drawTriangleEsssssst) for i._ZN12Adafruit_GFX12drawTriangleEsssssst
    adafruit_gfx.o(.ARM.exidx) refers to adafruit_gfx.o(i._ZN12Adafruit_GFX12fillTriangleEsssssst) for i._ZN12Adafruit_GFX12fillTriangleEsssssst
    adafruit_gfx.o(.ARM.exidx) refers to adafruit_gfx.o(i._ZN12Adafruit_GFX13drawRoundRectEssssst) for i._ZN12Adafruit_GFX13drawRoundRectEssssst
    adafruit_gfx.o(.ARM.exidx) refers to adafruit_gfx.o(i._ZN12Adafruit_GFX13fillRoundRectEssssst) for i._ZN12Adafruit_GFX13fillRoundRectEssssst
    adafruit_gfx.o(.ARM.exidx) refers to adafruit_gfx.o(i._ZN12Adafruit_GFX10drawBitmapEssPKhsst) for i._ZN12Adafruit_GFX10drawBitmapEssPKhsst
    adafruit_gfx.o(.ARM.exidx) refers to adafruit_gfx.o(i._ZN12Adafruit_GFX8drawCharEsshtth) for i._ZN12Adafruit_GFX8drawCharEsshtth
    adafruit_gfx.o(.ARM.exidx) refers to adafruit_gfx.o(i._ZN12Adafruit_GFX9setCursorEss) for i._ZN12Adafruit_GFX9setCursorEss
    adafruit_gfx.o(.ARM.exidx) refers to adafruit_gfx.o(i._ZN12Adafruit_GFX12setTextColorEt) for i._ZN12Adafruit_GFX12setTextColorEt
    adafruit_gfx.o(.ARM.exidx) refers to adafruit_gfx.o(i._ZN12Adafruit_GFX12setTextColorEtt) for i._ZN12Adafruit_GFX12setTextColorEtt
    adafruit_gfx.o(.ARM.exidx) refers to adafruit_gfx.o(i._ZN12Adafruit_GFX11setTextSizeEh) for i._ZN12Adafruit_GFX11setTextSizeEh
    adafruit_gfx.o(.ARM.exidx) refers to adafruit_gfx.o(i._ZN12Adafruit_GFX11setTextWrapEb) for i._ZN12Adafruit_GFX11setTextWrapEb
    adafruit_gfx.o(.ARM.exidx) refers to adafruit_gfx.o(i._ZN12Adafruit_GFX11setRotationEh) for i._ZN12Adafruit_GFX11setRotationEh
    adafruit_gfx.o(.ARM.exidx) refers to adafruit_gfx.o(i._ZN12Adafruit_GFX5writeEh) for i._ZN12Adafruit_GFX5writeEh
    adafruit_gfx.o(.ARM.exidx) refers to adafruit_gfx.o(i._ZN12Adafruit_GFX6heightEv) for i._ZN12Adafruit_GFX6heightEv
    adafruit_gfx.o(.ARM.exidx) refers to adafruit_gfx.o(i._ZN12Adafruit_GFX5widthEv) for i._ZN12Adafruit_GFX5widthEv
    adafruit_gfx.o(.ARM.exidx) refers to adafruit_gfx.o(i._ZN12Adafruit_GFX11getRotationEv) for i._ZN12Adafruit_GFX11getRotationEv
    mma7455.o(i._ZN7MMA745514getModeControlEv) refers to i2c.o(i._ZN4mbed3I2C5writeEiPKcib) for mbed::I2C::write(int, const char*, int, bool)
    mma7455.o(i._ZN7MMA745514getModeControlEv) refers to i2c.o(i._ZN4mbed3I2C4readEiPcib) for mbed::I2C::read(int, char*, int, bool)
    mma7455.o(i._ZN7MMA745514setModeControlEh) refers to i2c.o(i._ZN4mbed3I2C5writeEiPKcib) for mbed::I2C::write(int, const char*, int, bool)
    mma7455.o(i._ZN7MMA74554readERiS0_S0_) refers to mma7455.o(i._ZN7MMA74559getStatusEv) for MMA7455::getStatus()
    mma7455.o(i._ZN7MMA74554readERiS0_S0_) refers to i2c.o(i._ZN4mbed3I2C5writeEiPKcib) for mbed::I2C::write(int, const char*, int, bool)
    mma7455.o(i._ZN7MMA74554readERiS0_S0_) refers to i2c.o(i._ZN4mbed3I2C4readEiPcib) for mbed::I2C::read(int, char*, int, bool)
    mma7455.o(i._ZN7MMA74557setModeENS_4ModeE) refers to mma7455.o(i._ZN7MMA745514getModeControlEv) for MMA7455::getModeControl()
    mma7455.o(i._ZN7MMA74557setModeENS_4ModeE) refers to mma7455.o(i._ZN7MMA745514setModeControlEh) for MMA7455::setModeControl(unsigned char)
    mma7455.o(i._ZN7MMA74558setRangeENS_5RangeE) refers to mma7455.o(i._ZN7MMA745514getModeControlEv) for MMA7455::getModeControl()
    mma7455.o(i._ZN7MMA74558setRangeENS_5RangeE) refers to mma7455.o(i._ZN7MMA745514setModeControlEh) for MMA7455::setModeControl(unsigned char)
    mma7455.o(i._ZN7MMA74559calibrateEv) refers to mma7455.o(i._ZN7MMA74554readERiS0_S0_) for MMA7455::read(int&, int&, int&)
    mma7455.o(i._ZN7MMA74559calibrateEv) refers to wait_api.o(i.wait_ms) for wait_ms
    mma7455.o(i._ZN7MMA74559getStatusEv) refers to i2c.o(i._ZN4mbed3I2C5writeEiPKcib) for mbed::I2C::write(int, const char*, int, bool)
    mma7455.o(i._ZN7MMA74559getStatusEv) refers to i2c.o(i._ZN4mbed3I2C4readEiPcib) for mbed::I2C::read(int, char*, int, bool)
    mma7455.o(i._ZN7MMA7455C1E7PinNameS0_) refers to i2c.o(i._ZN4mbed3I2CC1E7PinNameS1_) for mbed::I2C::I2C(PinName, PinName)
    mma7455.o(.ARM.exidx) refers to mma7455.o(i._ZN7MMA7455C1E7PinNameS0_) for i._ZN7MMA7455C1E7PinNameS0_
    mma7455.o(.ARM.exidx) refers to mma7455.o(i._ZN7MMA745514setModeControlEh) for i._ZN7MMA745514setModeControlEh
    mma7455.o(.ARM.exidx) refers to mma7455.o(i._ZN7MMA745514getModeControlEv) for i._ZN7MMA745514getModeControlEv
    mma7455.o(.ARM.exidx) refers to mma7455.o(i._ZN7MMA74557setModeENS_4ModeE) for i._ZN7MMA74557setModeENS_4ModeE
    mma7455.o(.ARM.exidx) refers to mma7455.o(i._ZN7MMA74558setRangeENS_5RangeE) for i._ZN7MMA74558setRangeENS_5RangeE
    mma7455.o(.ARM.exidx) refers to mma7455.o(i._ZN7MMA74559getStatusEv) for i._ZN7MMA74559getStatusEv
    mma7455.o(.ARM.exidx) refers to mma7455.o(i._ZN7MMA74554readERiS0_S0_) for i._ZN7MMA74554readERiS0_S0_
    mma7455.o(.ARM.exidx) refers to mma7455.o(i._ZN7MMA74559calibrateEv) for i._ZN7MMA74559calibrateEv
    mma7455.o(.ARM.exidx) refers to mma7455.o(i._ZN7MMA745521getCalibrationOffsetsERiS0_S0_) for i._ZN7MMA745521getCalibrationOffsetsERiS0_S0_
    mma7455.o(.ARM.exidx) refers to mma7455.o(i._ZN7MMA745521setCalibrationOffsetsEiii) for i._ZN7MMA745521setCalibrationOffsetsEiii
    lm75b.o(i._ZN5LM75B10osPolarityENS_10OSPolarityE) refers to lm75b.o(i._ZN5LM75B5read8Ec) for LM75B::read8(char)
    lm75b.o(i._ZN5LM75B10osPolarityENS_10OSPolarityE) refers to lm75b.o(i._ZN5LM75B6write8Ecc) for LM75B::write8(char, char)
    lm75b.o(i._ZN5LM75B10osPolarityEv) refers to lm75b.o(i._ZN5LM75B5read8Ec) for LM75B::read8(char)
    lm75b.o(i._ZN5LM75B12osFaultQueueENS_12OSFaultQueueE) refers to lm75b.o(i._ZN5LM75B5read8Ec) for LM75B::read8(char)
    lm75b.o(i._ZN5LM75B12osFaultQueueENS_12OSFaultQueueE) refers to lm75b.o(i._ZN5LM75B6write8Ecc) for LM75B::write8(char, char)
    lm75b.o(i._ZN5LM75B12osFaultQueueEv) refers to lm75b.o(i._ZN5LM75B5read8Ec) for LM75B::read8(char)
    lm75b.o(i._ZN5LM75B19readAlertTempHelperEc) refers to lm75b.o(i._ZN5LM75B6read16Ec) for LM75B::read16(char)
    lm75b.o(i._ZN5LM75B19readAlertTempHelperEc) refers to dflt_clz.o(x$fpl$dflt) for __aeabi_i2d
    lm75b.o(i._ZN5LM75B19readAlertTempHelperEc) refers to dmul.o(x$fpl$dmul) for __aeabi_dmul
    lm75b.o(i._ZN5LM75B19readAlertTempHelperEc) refers to d2f.o(x$fpl$d2f) for __aeabi_d2f
    lm75b.o(i._ZN5LM75B20writeAlertTempHelperEcf) refers to f2d.o(x$fpl$f2d) for __aeabi_f2d
    lm75b.o(i._ZN5LM75B20writeAlertTempHelperEcf) refers to dleqf.o(x$fpl$dleqf) for __aeabi_cdcmple
    lm75b.o(i._ZN5LM75B20writeAlertTempHelperEcf) refers to drleqf.o(x$fpl$drleqf) for __aeabi_cdrcmple
    lm75b.o(i._ZN5LM75B20writeAlertTempHelperEcf) refers to lm75b.o(i._ZN5LM75B7write16Ect) for LM75B::write16(char, unsigned short)
    lm75b.o(i._ZN5LM75B4openEv) refers to i2c.o(i._ZN4mbed3I2C5writeEiPKcib) for mbed::I2C::write(int, const char*, int, bool)
    lm75b.o(i._ZN5LM75B4tempEv) refers to lm75b.o(i._ZN5LM75B6read16Ec) for LM75B::read16(char)
    lm75b.o(i._ZN5LM75B4tempEv) refers to dflt_clz.o(x$fpl$dflt) for __aeabi_i2d
    lm75b.o(i._ZN5LM75B4tempEv) refers to dmul.o(x$fpl$dmul) for __aeabi_dmul
    lm75b.o(i._ZN5LM75B4tempEv) refers to d2f.o(x$fpl$d2f) for __aeabi_d2f
    lm75b.o(i._ZN5LM75B5read8Ec) refers to i2c.o(i._ZN4mbed3I2C5writeEiPKcib) for mbed::I2C::write(int, const char*, int, bool)
    lm75b.o(i._ZN5LM75B5read8Ec) refers to i2c.o(i._ZN4mbed3I2C4readEiPcib) for mbed::I2C::read(int, char*, int, bool)
    lm75b.o(i._ZN5LM75B6osModeENS_6OSModeE) refers to lm75b.o(i._ZN5LM75B5read8Ec) for LM75B::read8(char)
    lm75b.o(i._ZN5LM75B6osModeENS_6OSModeE) refers to lm75b.o(i._ZN5LM75B6write8Ecc) for LM75B::write8(char, char)
    lm75b.o(i._ZN5LM75B6osModeEv) refers to lm75b.o(i._ZN5LM75B5read8Ec) for LM75B::read8(char)
    lm75b.o(i._ZN5LM75B6read16Ec) refers to i2c.o(i._ZN4mbed3I2C5writeEiPKcib) for mbed::I2C::write(int, const char*, int, bool)
    lm75b.o(i._ZN5LM75B6read16Ec) refers to i2c.o(i._ZN4mbed3I2C4readEiPcib) for mbed::I2C::read(int, char*, int, bool)
    lm75b.o(i._ZN5LM75B6write8Ecc) refers to i2c.o(i._ZN4mbed3I2C5writeEiPKcib) for mbed::I2C::write(int, const char*, int, bool)
    lm75b.o(i._ZN5LM75B7write16Ect) refers to i2c.o(i._ZN4mbed3I2C5writeEiPKcib) for mbed::I2C::write(int, const char*, int, bool)
    lm75b.o(i._ZN5LM75B9alertHystEf) refers to lm75b.o(i._ZN5LM75B20writeAlertTempHelperEcf) for LM75B::writeAlertTempHelper(char, float)
    lm75b.o(i._ZN5LM75B9alertHystEv) refers to lm75b.o(i._ZN5LM75B19readAlertTempHelperEc) for LM75B::readAlertTempHelper(char)
    lm75b.o(i._ZN5LM75B9alertTempEf) refers to lm75b.o(i._ZN5LM75B20writeAlertTempHelperEcf) for LM75B::writeAlertTempHelper(char, float)
    lm75b.o(i._ZN5LM75B9alertTempEv) refers to lm75b.o(i._ZN5LM75B19readAlertTempHelperEc) for LM75B::readAlertTempHelper(char)
    lm75b.o(i._ZN5LM75B9powerModeENS_9PowerModeE) refers to lm75b.o(i._ZN5LM75B5read8Ec) for LM75B::read8(char)
    lm75b.o(i._ZN5LM75B9powerModeENS_9PowerModeE) refers to lm75b.o(i._ZN5LM75B6write8Ecc) for LM75B::write8(char, char)
    lm75b.o(i._ZN5LM75B9powerModeEv) refers to lm75b.o(i._ZN5LM75B5read8Ec) for LM75B::read8(char)
    lm75b.o(i._ZN5LM75BC1E7PinNameS0_NS_7AddressEi) refers to i2c.o(i._ZN4mbed3I2CC1E7PinNameS1_) for mbed::I2C::I2C(PinName, PinName)
    lm75b.o(i._ZN5LM75BC1E7PinNameS0_NS_7AddressEi) refers to i2c.o(i._ZN4mbed3I2C9frequencyEi) for mbed::I2C::frequency(int)
    lm75b.o(i._ZN5LM75BcvfEv) refers to lm75b.o(i._ZN5LM75B4tempEv) for LM75B::temp()
    lm75b.o(.ARM.exidx) refers to lm75b.o(i._ZN5LM75BC1E7PinNameS0_NS_7AddressEi) for i._ZN5LM75BC1E7PinNameS0_NS_7AddressEi
    lm75b.o(.ARM.exidx) refers to lm75b.o(i._ZN5LM75B4openEv) for i._ZN5LM75B4openEv
    lm75b.o(.ARM.exidx) refers to lm75b.o(i._ZN5LM75B5read8Ec) for i._ZN5LM75B5read8Ec
    lm75b.o(.ARM.exidx) refers to lm75b.o(i._ZN5LM75B9powerModeEv) for i._ZN5LM75B9powerModeEv
    lm75b.o(.ARM.exidx) refers to lm75b.o(i._ZN5LM75B6write8Ecc) for i._ZN5LM75B6write8Ecc
    lm75b.o(.ARM.exidx) refers to lm75b.o(i._ZN5LM75B9powerModeENS_9PowerModeE) for i._ZN5LM75B9powerModeENS_9PowerModeE
    lm75b.o(.ARM.exidx) refers to lm75b.o(i._ZN5LM75B6osModeEv) for i._ZN5LM75B6osModeEv
    lm75b.o(.ARM.exidx) refers to lm75b.o(i._ZN5LM75B6osModeENS_6OSModeE) for i._ZN5LM75B6osModeENS_6OSModeE
    lm75b.o(.ARM.exidx) refers to lm75b.o(i._ZN5LM75B10osPolarityEv) for i._ZN5LM75B10osPolarityEv
    lm75b.o(.ARM.exidx) refers to lm75b.o(i._ZN5LM75B10osPolarityENS_10OSPolarityE) for i._ZN5LM75B10osPolarityENS_10OSPolarityE
    lm75b.o(.ARM.exidx) refers to lm75b.o(i._ZN5LM75B12osFaultQueueEv) for i._ZN5LM75B12osFaultQueueEv
    lm75b.o(.ARM.exidx) refers to lm75b.o(i._ZN5LM75B12osFaultQueueENS_12OSFaultQueueE) for i._ZN5LM75B12osFaultQueueENS_12OSFaultQueueE
    lm75b.o(.ARM.exidx) refers to lm75b.o(i._ZN5LM75B6read16Ec) for i._ZN5LM75B6read16Ec
    lm75b.o(.ARM.exidx) refers to lm75b.o(i._ZN5LM75B19readAlertTempHelperEc) for i._ZN5LM75B19readAlertTempHelperEc
    lm75b.o(.ARM.exidx) refers to lm75b.o(i._ZN5LM75B9alertTempEv) for i._ZN5LM75B9alertTempEv
    lm75b.o(.ARM.exidx) refers to lm75b.o(i._ZN5LM75B7write16Ect) for i._ZN5LM75B7write16Ect
    lm75b.o(.ARM.exidx) refers to lm75b.o(i._ZN5LM75B20writeAlertTempHelperEcf) for i._ZN5LM75B20writeAlertTempHelperEcf
    lm75b.o(.ARM.exidx) refers to lm75b.o(i._ZN5LM75B9alertTempEf) for i._ZN5LM75B9alertTempEf
    lm75b.o(.ARM.exidx) refers to lm75b.o(i._ZN5LM75B9alertHystEv) for i._ZN5LM75B9alertHystEv
    lm75b.o(.ARM.exidx) refers to lm75b.o(i._ZN5LM75B9alertHystEf) for i._ZN5LM75B9alertHystEf
    lm75b.o(.ARM.exidx) refers to lm75b.o(i._ZN5LM75B4tempEv) for i._ZN5LM75B4tempEv
    lm75b.o(.ARM.exidx) refers to lm75b.o(i._ZN5LM75BcvfEv) for i._ZN5LM75BcvfEv
    display.o(i._ZN7Display10theDisplayEv) refers to cxa_guard_acquire.o(i.__cxa_guard_acquire) for __cxa_guard_acquire
    display.o(i._ZN7Display10theDisplayEv) refers to new.o(i._Znwj) for operator new(unsigned)
    display.o(i._ZN7Display10theDisplayEv) refers to display.o(i._ZN7DisplayC1Ev) for Display::Display()
    display.o(i._ZN7Display10theDisplayEv) refers to display.o(.data) for _ZGVtheDisplay
    display.o(i._ZN7Display5_putcEi) refers to adafruit_gfx.o(i._ZN12Adafruit_GFX5writeEh) for Adafruit_GFX::write(unsigned char)
    display.o(i._ZN7DisplayC1Ev) refers to stream.o(i._ZN4mbed6StreamC2EPKc) for mbed::Stream::Stream__sub_object(const char*)
    display.o(i._ZN7DisplayC1Ev) refers to gfxfb.o(i._ZN5GFXFbC1EttPt) for GFXFb::GFXFb(unsigned short, unsigned short, unsigned short*)
    display.o(i._ZN7DisplayC1Ev) refers to ealcdboardgpio.o(i._ZN14EaLcdBoardGPIOC1E7PinNameS0_) for EaLcdBoardGPIO::EaLcdBoardGPIO(PinName, PinName)
    display.o(i._ZN7DisplayC1Ev) refers to new.o(i._Znwj) for operator new(unsigned)
    display.o(i._ZN7DisplayC1Ev) refers to display.o(i._ZN13LcdController6ConfigC1EiiiiiiiibbbbiNS_12BitsPerPixelEiNS_8LcdPanelEb) for LcdController::Config::Config(int, int, int, int, int, int, int, int, bool, bool, bool, bool, int, LcdController::BitsPerPixel, int, LcdController::LcdPanel, bool)
    display.o(i._ZN7DisplayC1Ev) refers to ealcdboard.o(i._ZN10EaLcdBoard4openEPN13LcdController6ConfigEPc) for EaLcdBoard::open(LcdController::Config*, char*)
    display.o(i._ZN7DisplayC1Ev) refers to sdram.o(i._Z10sdram_initv) for sdram_init()
    display.o(i._ZN7DisplayC1Ev) refers to h1_alloc.o(.text) for malloc
    display.o(i._ZN7DisplayC1Ev) refers to rt_memclr.o(.text) for __aeabi_memclr
    display.o(i._ZN7DisplayC1Ev) refers to ealcdboard.o(i._ZN10EaLcdBoard14setFrameBufferEj) for EaLcdBoard::setFrameBuffer(unsigned)
    display.o(i._ZN7DisplayC1Ev) refers to display.o(.constdata__ZTV7Display) for vtable for Display
    display.o(i._ZN7DisplayD0Ev) refers to display.o(i._ZN7DisplayD1Ev) for Display::~Display()
    display.o(i._ZN7DisplayD0Ev) refers to delete.o(i._ZdlPv) for operator delete (void*)
    display.o(i._ZN7DisplayD1Ev) refers to h1_free.o(.text) for free
    display.o(i._ZN7DisplayD1Ev) refers to stream.o(i._ZN4mbed6StreamD2Ev) for mbed::Stream::~Stream__sub_object()
    display.o(i._ZN7DisplayD1Ev) refers to display.o(.constdata__ZTV7Display) for vtable for Display
    display.o(i._ZThn4_N7DisplayD0Ev) refers to display.o(i._ZN7DisplayD0Ev) for Display::~Display__deallocating()
    display.o(i._ZThn4_N7DisplayD1Ev) refers to display.o(i._ZN7DisplayD1Ev) for Display::~Display()
    display.o(.ARM.exidx) refers to display.o(i._ZN7DisplayD1Ev) for i._ZN7DisplayD1Ev
    display.o(.ARM.exidx) refers to display.o(i._ZN7DisplayD0Ev) for i._ZN7DisplayD0Ev
    display.o(.ARM.exidx) refers to display.o(i._ZThn4_N7DisplayD0Ev) for i._ZThn4_N7DisplayD0Ev
    display.o(.ARM.exidx) refers to display.o(i._ZThn4_N7DisplayD1Ev) for i._ZThn4_N7DisplayD1Ev
    display.o(.ARM.exidx) refers to display.o(i._ZN7Display6initOkEv) for i._ZN7Display6initOkEv
    display.o(.ARM.exidx) refers to display.o(i._ZN7DisplayC1Ev) for i._ZN7DisplayC1Ev
    display.o(.ARM.exidx) refers to display.o(i._ZN7Display10theDisplayEv) for i._ZN7Display10theDisplayEv
    display.o(.ARM.exidx) refers to display.o(i._ZN7Display5_putcEi) for i._ZN7Display5_putcEi
    display.o(.ARM.exidx) refers to display.o(i._ZN7Display5_getcEv) for i._ZN7Display5_getcEv
    error.o(i.error) refers to vfprintf.o(.text) for vfprintf
    error.o(i.error) refers to retarget.o(i.exit) for exit
    error.o(i.error) refers to stdio_streams.o(.bss) for __stderr
    pinmap_common.o(i.pinmap_function) refers to pinmap_common.o(i.pinmap_find_function) for pinmap_find_function
    pinmap_common.o(i.pinmap_function) refers to error.o(i.error) for error
    pinmap_common.o(i.pinmap_merge) refers to error.o(i.error) for error
    pinmap_common.o(i.pinmap_peripheral) refers to pinmap_common.o(i.pinmap_find_peripheral) for pinmap_find_peripheral
    pinmap_common.o(i.pinmap_peripheral) refers to error.o(i.error) for error
    pinmap_common.o(i.pinmap_pinout) refers to pinmap.o(i.pin_function) for pin_function
    pinmap_common.o(i.pinmap_pinout) refers to pinmap.o(i.pin_mode) for pin_mode
    pinmap_common.o(i.pinmap_pinout) refers to error.o(i.error) for error
    filelike.o(i._ZN4mbed8FileLikeC2EPKc) refers to filebase.o(i._ZN4mbed8FileBaseC1EPKcNS_8PathTypeE) for mbed::FileBase::FileBase(const char*, mbed::PathType)
    filelike.o(i._ZN4mbed8FileLikeC2EPKc) refers to retarget.o(.constdata__ZTVN4mbed10FileHandleE) for vtable for mbed::FileHandle
    filelike.o(i._ZN4mbed8FileLikeC2EPKc) refers to filelike.o(.constdata__ZTVN4mbed8FileLikeE) for vtable for mbed::FileLike
    filelike.o(i._ZN4mbed8FileLikeD0Ev) refers to filelike.o(i._ZN4mbed8FileLikeD2Ev) for mbed::FileLike::~FileLike__sub_object()
    filelike.o(i._ZN4mbed8FileLikeD0Ev) refers to delete.o(i._ZdlPv) for operator delete (void*)
    filelike.o(i._ZN4mbed8FileLikeD2Ev) refers to filebase.o(i._ZN4mbed8FileBaseD1Ev) for mbed::FileBase::~FileBase()
    filelike.o(i._ZN4mbed8FileLikeD2Ev) refers to retarget.o(i._ZN4mbed10FileHandleD2Ev) for mbed::FileHandle::~FileHandle__sub_object()
    filelike.o(i._ZThn4_N4mbed8FileLikeD0Ev) refers to filelike.o(i._ZN4mbed8FileLikeD0Ev) for mbed::FileLike::~FileLike__deallocating()
    filelike.o(i._ZThn4_N4mbed8FileLikeD1Ev) refers to filelike.o(i._ZN4mbed8FileLikeD2Ev) for mbed::FileLike::~FileLike__sub_object()
    filelike.o(.ARM.exidx) refers to filelike.o(i._ZN4mbed8FileLikeC2EPKc) for i._ZN4mbed8FileLikeC2EPKc
    filelike.o(.ARM.exidx) refers to filelike.o(i._ZN4mbed8FileLikeD2Ev) for i._ZN4mbed8FileLikeD2Ev
    filelike.o(.ARM.exidx) refers to filelike.o(i._ZN4mbed8FileLikeD0Ev) for i._ZN4mbed8FileLikeD0Ev
    filelike.o(.ARM.exidx) refers to filelike.o(i._ZThn4_N4mbed8FileLikeD0Ev) for i._ZThn4_N4mbed8FileLikeD0Ev
    filelike.o(.ARM.exidx) refers to filelike.o(i._ZThn4_N4mbed8FileLikeD1Ev) for i._ZThn4_N4mbed8FileLikeD1Ev
    i2c.o(i._ZN4mbed3I2C4readEi) refers to i2c_api.o(i.i2c_byte_read) for i2c_byte_read
    i2c.o(i._ZN4mbed3I2C4readEiPcib) refers to i2c.o(i._ZN4mbed3I2C6aquireEv) for mbed::I2C::aquire()
    i2c.o(i._ZN4mbed3I2C4readEiPcib) refers to i2c_api.o(i.i2c_read) for i2c_read
    i2c.o(i._ZN4mbed3I2C4stopEv) refers to i2c_api.o(i.i2c_stop) for i2c_stop
    i2c.o(i._ZN4mbed3I2C5startEv) refers to i2c_api.o(i.i2c_start) for i2c_start
    i2c.o(i._ZN4mbed3I2C5writeEi) refers to i2c_api.o(i.i2c_byte_write) for i2c_byte_write
    i2c.o(i._ZN4mbed3I2C5writeEiPKcib) refers to i2c.o(i._ZN4mbed3I2C6aquireEv) for mbed::I2C::aquire()
    i2c.o(i._ZN4mbed3I2C5writeEiPKcib) refers to i2c_api.o(i.i2c_write) for i2c_write
    i2c.o(i._ZN4mbed3I2C6aquireEv) refers to i2c_api.o(i.i2c_frequency) for i2c_frequency
    i2c.o(i._ZN4mbed3I2C6aquireEv) refers to i2c.o(.data) for mbed::I2C::_owner
    i2c.o(i._ZN4mbed3I2C9frequencyEi) refers to i2c_api.o(i.i2c_frequency) for i2c_frequency
    i2c.o(i._ZN4mbed3I2C9frequencyEi) refers to i2c.o(.data) for mbed::I2C::_owner
    i2c.o(i._ZN4mbed3I2CC1E7PinNameS1_) refers to i2c_api.o(i.i2c_init) for i2c_init
    i2c.o(i._ZN4mbed3I2CC1E7PinNameS1_) refers to i2c.o(.data) for mbed::I2C::_owner
    i2c.o(.ARM.exidx) refers to i2c.o(i._ZN4mbed3I2CC1E7PinNameS1_) for i._ZN4mbed3I2CC1E7PinNameS1_
    i2c.o(.ARM.exidx) refers to i2c.o(i._ZN4mbed3I2C9frequencyEi) for i._ZN4mbed3I2C9frequencyEi
    i2c.o(.ARM.exidx) refers to i2c.o(i._ZN4mbed3I2C6aquireEv) for i._ZN4mbed3I2C6aquireEv
    i2c.o(.ARM.exidx) refers to i2c.o(i._ZN4mbed3I2C4readEiPcib) for i._ZN4mbed3I2C4readEiPcib
    i2c.o(.ARM.exidx) refers to i2c.o(i._ZN4mbed3I2C4readEi) for i._ZN4mbed3I2C4readEi
    i2c.o(.ARM.exidx) refers to i2c.o(i._ZN4mbed3I2C5writeEiPKcib) for i._ZN4mbed3I2C5writeEiPKcib
    i2c.o(.ARM.exidx) refers to i2c.o(i._ZN4mbed3I2C5writeEi) for i._ZN4mbed3I2C5writeEi
    i2c.o(.ARM.exidx) refers to i2c.o(i._ZN4mbed3I2C5startEv) for i._ZN4mbed3I2C5startEv
    i2c.o(.ARM.exidx) refers to i2c.o(i._ZN4mbed3I2C4stopEv) for i._ZN4mbed3I2C4stopEv
    gpio_api.o(i.gpio_dir) refers to assert.o(i.mbed_assert_internal) for mbed_assert_internal
    gpio_api.o(i.gpio_init) refers to gpio_api.o(i.gpio_set) for gpio_set
    gpio_api.o(i.gpio_mode) refers to pinmap.o(i.pin_mode) for pin_mode
    gpio_api.o(i.gpio_set) refers to assert.o(i.mbed_assert_internal) for mbed_assert_internal
    gpio_api.o(i.gpio_set) refers to pinmap.o(i.pin_function) for pin_function
    rtc_api.o(i.rtc_read) refers to mktime.o(.text) for mktime
    rtc_api.o(i.rtc_write) refers to localtime.o(.text) for localtime
    us_ticker.o(i.us_ticker_init) refers to cmsis_nvic.o(i.NVIC_SetVector) for NVIC_SetVector
    us_ticker.o(i.us_ticker_init) refers to us_ticker.o(.data) for us_ticker_inited
    us_ticker.o(i.us_ticker_init) refers to system_lpc407x_8x_177x_8x.o(.data) for PeripheralClock
    us_ticker.o(i.us_ticker_init) refers to us_ticker_api.o(i.us_ticker_irq_handler) for us_ticker_irq_handler
    us_ticker.o(i.us_ticker_read) refers to us_ticker.o(i.us_ticker_init) for us_ticker_init
    us_ticker.o(i.us_ticker_read) refers to us_ticker.o(.data) for us_ticker_inited
    ethernet_api.o(i.clockselect) refers to system_lpc407x_8x_177x_8x.o(.data) for SystemCoreClock
    ethernet_api.o(i.ethernet_address) refers to ethernet_api.o(i.mbed_mac_address) for mbed_mac_address
    ethernet_api.o(i.ethernet_init) refers to ethernet_api.o(i.clockselect) for clockselect
    ethernet_api.o(i.ethernet_init) refers to ethernet_api.o(i.phy_write) for phy_write
    ethernet_api.o(i.ethernet_init) refers to ethernet_api.o(i.phy_read) for phy_read
    ethernet_api.o(i.ethernet_init) refers to error.o(i.error) for error
    ethernet_api.o(i.ethernet_init) refers to ethernet_api.o(i.ethernet_set_link) for ethernet_set_link
    ethernet_api.o(i.ethernet_init) refers to ethernet_api.o(i.ethernet_address) for ethernet_address
    ethernet_api.o(i.ethernet_init) refers to ethernet_api.o(i.txdscr_init) for txdscr_init
    ethernet_api.o(i.ethernet_init) refers to ethernet_api.o(i.rxdscr_init) for rxdscr_init
    ethernet_api.o(i.ethernet_init) refers to ethernet_api.o(.data) for phy_id
    ethernet_api.o(i.ethernet_link) refers to ethernet_api.o(i.phy_read) for phy_read
    ethernet_api.o(i.ethernet_link) refers to ethernet_api.o(.data) for phy_id
    ethernet_api.o(i.ethernet_read) refers to ethernet_api.o(i.rinc) for rinc
    ethernet_api.o(i.ethernet_read) refers to rt_memcpy_v6.o(.text) for __aeabi_memcpy
    ethernet_api.o(i.ethernet_read) refers to ethernet_api.o(.data) for receive_idx
    ethernet_api.o(i.ethernet_read) refers to ethernet_api.o(AHBSRAM1) for rxstat
    ethernet_api.o(i.ethernet_receive) refers to ethernet_api.o(i.rinc) for rinc
    ethernet_api.o(i.ethernet_receive) refers to ethernet_api.o(.data) for receive_idx
    ethernet_api.o(i.ethernet_receive) refers to ethernet_api.o(AHBSRAM1) for rxstat
    ethernet_api.o(i.ethernet_send) refers to ethernet_api.o(i.rinc) for rinc
    ethernet_api.o(i.ethernet_send) refers to ethernet_api.o(.data) for send_size
    ethernet_api.o(i.ethernet_send) refers to ethernet_api.o(AHBSRAM1) for txdesc
    ethernet_api.o(i.ethernet_set_link) refers to ethernet_api.o(i.phy_write) for phy_write
    ethernet_api.o(i.ethernet_set_link) refers to ethernet_api.o(i.phy_read) for phy_read
    ethernet_api.o(i.ethernet_set_link) refers to ethernet_api.o(.data) for phy_id
    ethernet_api.o(i.ethernet_write) refers to ethernet_api.o(i.rinc) for rinc
    ethernet_api.o(i.ethernet_write) refers to rt_memcpy_v6.o(.text) for __aeabi_memcpy
    ethernet_api.o(i.ethernet_write) refers to rt_memclr.o(.text) for __aeabi_memclr
    ethernet_api.o(i.ethernet_write) refers to ethernet_api.o(.data) for send_idx
    ethernet_api.o(i.ethernet_write) refers to ethernet_api.o(AHBSRAM1) for txdesc
    ethernet_api.o(i.mbed_mac_address) refers to i2c_api.o(i.i2c_init) for i2c_init
    ethernet_api.o(i.mbed_mac_address) refers to i2c_api.o(i.i2c_write) for i2c_write
    ethernet_api.o(i.mbed_mac_address) refers to i2c_api.o(i.i2c_read) for i2c_read
    ethernet_api.o(i.mbed_mac_address) refers to ethernet_api.o(.data) for _macRetrieved
    ethernet_api.o(i.rxdscr_init) refers to ethernet_api.o(AHBSRAM1) for rxbuf
    ethernet_api.o(i.txdscr_init) refers to ethernet_api.o(AHBSRAM1) for txbuf
    retarget.o(i.$Sub$$main) refers to retarget.o(i.mbed_sdk_init) for mbed_sdk_init
    retarget.o(i.$Sub$$main) refers to retarget.o(i.mbed_main) for mbed_main
    retarget.o(i.$Sub$$main) refers to main.o(i.main) for $Super$$main
    retarget.o(i._Z11init_serialv) refers to serial_api.o(i.serial_init) for serial_init
    retarget.o(i._Z11init_serialv) refers to serial_api.o(.data) for stdio_uart_inited
    retarget.o(i._ZN4mbed10FileHandleD0Ev) refers to retarget.o(i._ZN4mbed10FileHandleD2Ev) for mbed::FileHandle::~FileHandle__sub_object()
    retarget.o(i._ZN4mbed10FileHandleD0Ev) refers to delete.o(i._ZdlPv) for operator delete (void*)
    retarget.o(i._ZN4mbed10FileHandleD2Ev) refers to retarget.o(.constdata__ZTVN4mbed10FileHandleE) for vtable for mbed::FileHandle
    retarget.o(i._ZN4mbed10FileHandleD2Ev) refers to retarget.o(.bss) for filehandles
    retarget.o(i._ZN4mbed26mbed_set_unbuffered_streamEPSt6__FILE) refers to setbuf.o(.text) for setbuf
    retarget.o(i._ZN4mbed9mbed_getcEPSt6__FILE) refers to fgetc.o(i.fgetc) for fgetc
    retarget.o(i._ZN4mbed9mbed_getsEPciPSt6__FILE) refers to fgets.o(.text) for fgets
    retarget.o(i._sys_close) refers to retarget.o(.bss) for filehandles
    retarget.o(i._sys_ensure) refers to retarget.o(.bss) for filehandles
    retarget.o(i._sys_flen) refers to retarget.o(.bss) for filehandles
    retarget.o(i._sys_istty) refers to retarget.o(.bss) for filehandles
    retarget.o(i._sys_open) refers to _scanf_int.o(.text) for _scanf_int
    retarget.o(i._sys_open) refers to strcmpv7m.o(.text) for strcmp
    retarget.o(i._sys_open) refers to retarget.o(i._Z11init_serialv) for init_serial()
    retarget.o(i._sys_open) refers to __0sscanf.o(.text) for __0sscanf
    retarget.o(i._sys_open) refers to filepath.o(i._ZN4mbed8FilePathC1EPKc) for mbed::FilePath::FilePath(const char*)
    retarget.o(i._sys_open) refers to filepath.o(i._ZN4mbed8FilePath6existsEv) for mbed::FilePath::exists()
    retarget.o(i._sys_open) refers to filepath.o(i._ZN4mbed8FilePath6isFileEv) for mbed::FilePath::isFile()
    retarget.o(i._sys_open) refers to filepath.o(i._ZN4mbed8FilePath4fileEv) for mbed::FilePath::file()
    retarget.o(i._sys_open) refers to filepath.o(i._ZN4mbed8FilePath10fileSystemEv) for mbed::FilePath::fileSystem()
    retarget.o(i._sys_open) refers to filepath.o(i._ZN4mbed8FilePath8fileNameEv) for mbed::FilePath::fileName()
    retarget.o(i._sys_open) refers to retarget.o(.constdata) for __stdin_name
    retarget.o(i._sys_open) refers to retarget.o(.bss) for filehandles
    retarget.o(i._sys_read) refers to retarget.o(i._Z11init_serialv) for init_serial()
    retarget.o(i._sys_read) refers to serial_api.o(i.serial_getc) for serial_getc
    retarget.o(i._sys_read) refers to serial_api.o(.data) for stdio_uart_inited
    retarget.o(i._sys_read) refers to retarget.o(.bss) for filehandles
    retarget.o(i._sys_seek) refers to retarget.o(.bss) for filehandles
    retarget.o(i._sys_write) refers to retarget.o(i._Z11init_serialv) for init_serial()
    retarget.o(i._sys_write) refers to serial_api.o(i.serial_putc) for serial_putc
    retarget.o(i._sys_write) refers to serial_api.o(.data) for stdio_uart_inited
    retarget.o(i._sys_write) refers to retarget.o(.bss) for filehandles
    retarget.o(i.exit) refers to fflush.o(.text) for fflush
    retarget.o(i.exit) refers to board.o(i.mbed_die) for mbed_die
    retarget.o(i.exit) refers to stdio_streams.o(.bss) for __stdout
    retarget.o(i.exit) refers to stdio_streams.o(.bss) for __stderr
    retarget.o(i.mkdir) refers to filepath.o(i._ZN4mbed8FilePathC1EPKc) for mbed::FilePath::FilePath(const char*)
    retarget.o(i.mkdir) refers to filepath.o(i._ZN4mbed8FilePath10fileSystemEv) for mbed::FilePath::fileSystem()
    retarget.o(i.mkdir) refers to filepath.o(i._ZN4mbed8FilePath8fileNameEv) for mbed::FilePath::fileName()
    retarget.o(i.opendir) refers to filesystemlike.o(i._ZN4mbed14FileSystemLike7opendirEv) for mbed::FileSystemLike::opendir()
    retarget.o(i.opendir) refers to filepath.o(i._ZN4mbed8FilePathC1EPKc) for mbed::FilePath::FilePath(const char*)
    retarget.o(i.opendir) refers to filepath.o(i._ZN4mbed8FilePath10fileSystemEv) for mbed::FilePath::fileSystem()
    retarget.o(i.opendir) refers to filepath.o(i._ZN4mbed8FilePath8fileNameEv) for mbed::FilePath::fileName()
    retarget.o(i.remove) refers to filepath.o(i._ZN4mbed8FilePathC1EPKc) for mbed::FilePath::FilePath(const char*)
    retarget.o(i.remove) refers to filepath.o(i._ZN4mbed8FilePath10fileSystemEv) for mbed::FilePath::fileSystem()
    retarget.o(i.remove) refers to filepath.o(i._ZN4mbed8FilePath8fileNameEv) for mbed::FilePath::fileName()
    retarget.o(i.rename) refers to filepath.o(i._ZN4mbed8FilePathC1EPKc) for mbed::FilePath::FilePath(const char*)
    retarget.o(i.rename) refers to filepath.o(i._ZN4mbed8FilePath10fileSystemEv) for mbed::FilePath::fileSystem()
    retarget.o(i.rename) refers to filepath.o(i._ZN4mbed8FilePath8fileNameEv) for mbed::FilePath::fileName()
    retarget.o(.ARM.exidx) refers to retarget.o(i._Z11init_serialv) for i._Z11init_serialv
    retarget.o(.ARM.exidx) refers to retarget.o(i._sys_open) for i._sys_open
    retarget.o(.ARM.exidx) refers to retarget.o(i._sys_close) for i._sys_close
    retarget.o(.ARM.exidx) refers to retarget.o(i._sys_write) for i._sys_write
    retarget.o(.ARM.exidx) refers to retarget.o(i._sys_read) for i._sys_read
    retarget.o(.ARM.exidx) refers to retarget.o(i._sys_istty) for i._sys_istty
    retarget.o(.ARM.exidx) refers to retarget.o(i._sys_seek) for i._sys_seek
    retarget.o(.ARM.exidx) refers to retarget.o(i._sys_ensure) for i._sys_ensure
    retarget.o(.ARM.exidx) refers to retarget.o(i._sys_flen) for i._sys_flen
    retarget.o(.ARM.exidx) refers to retarget.o(i.remove) for i.remove
    retarget.o(.ARM.exidx) refers to retarget.o(i.rename) for i.rename
    retarget.o(.ARM.exidx) refers to retarget.o(i.tmpnam) for i.tmpnam
    retarget.o(.ARM.exidx) refers to retarget.o(i.tmpfile) for i.tmpfile
    retarget.o(.ARM.exidx) refers to retarget.o(i._sys_command_string) for i._sys_command_string
    retarget.o(.ARM.exidx) refers to retarget.o(i.opendir) for i.opendir
    retarget.o(.ARM.exidx) refers to retarget.o(i.readdir) for i.readdir
    retarget.o(.ARM.exidx) refers to retarget.o(i.closedir) for i.closedir
    retarget.o(.ARM.exidx) refers to retarget.o(i.rewinddir) for i.rewinddir
    retarget.o(.ARM.exidx) refers to retarget.o(i.telldir) for i.telldir
    retarget.o(.ARM.exidx) refers to retarget.o(i.seekdir) for i.seekdir
    retarget.o(.ARM.exidx) refers to retarget.o(i.mkdir) for i.mkdir
    retarget.o(.ARM.exidx) refers to retarget.o(i.mbed_main) for i.mbed_main
    retarget.o(.ARM.exidx) refers to retarget.o(i.mbed_sdk_init) for i.mbed_sdk_init
    retarget.o(.ARM.exidx) refers to retarget.o(i.$Sub$$main) for i.$Sub$$main
    retarget.o(.ARM.exidx) refers to retarget.o(i.exit) for i.exit
    retarget.o(.ARM.exidx) refers to retarget.o(i._ZN4mbed10FileHandleD2Ev) for i._ZN4mbed10FileHandleD2Ev
    retarget.o(.ARM.exidx) refers to retarget.o(i._ZN4mbed10FileHandleD0Ev) for i._ZN4mbed10FileHandleD0Ev
    retarget.o(.ARM.exidx) refers to retarget.o(i._ZN4mbed26mbed_set_unbuffered_streamEPSt6__FILE) for i._ZN4mbed26mbed_set_unbuffered_streamEPSt6__FILE
    retarget.o(.ARM.exidx) refers to retarget.o(i._ZN4mbed9mbed_getcEPSt6__FILE) for i._ZN4mbed9mbed_getcEPSt6__FILE
    retarget.o(.ARM.exidx) refers to retarget.o(i._ZN4mbed9mbed_getsEPciPSt6__FILE) for i._ZN4mbed9mbed_getsEPciPSt6__FILE
    ealcdboardgpio.o(i._ZN14EaLcdBoardGPIO11set5VSignalEb) refers to ealcdboardgpio.o(i._ZN4mbed10DigitalOutaSEi) for mbed::DigitalOut::operator =(int)
    ealcdboardgpio.o(i._ZN14EaLcdBoardGPIO12set3V3SignalEb) refers to ealcdboardgpio.o(i._ZN4mbed10DigitalOutaSEi) for mbed::DigitalOut::operator =(int)
    ealcdboardgpio.o(i._ZN14EaLcdBoardGPIO20setBacklightContrastEj) refers to pwmout_api.o(i.pwmout_write) for pwmout_write
    ealcdboardgpio.o(i._ZN14EaLcdBoardGPIO22setDisplayEnableSignalEb) refers to ealcdboardgpio.o(i._ZN4mbed10DigitalOutaSEi) for mbed::DigitalOut::operator =(int)
    ealcdboardgpio.o(i._ZN14EaLcdBoardGPIOC1E7PinNameS0_) refers to ealcdboard.o(i._ZN10EaLcdBoardC1E7PinNameS0_) for EaLcdBoard::EaLcdBoard(PinName, PinName)
    ealcdboardgpio.o(i._ZN14EaLcdBoardGPIOC1E7PinNameS0_) refers to ealcdboardgpio.o(i._ZN4mbed10DigitalOutC1E7PinName) for mbed::DigitalOut::DigitalOut(PinName)
    ealcdboardgpio.o(i._ZN14EaLcdBoardGPIOC1E7PinNameS0_) refers to pwmout_api.o(i.pwmout_init) for pwmout_init
    ealcdboardgpio.o(i._ZN14EaLcdBoardGPIOC1E7PinNameS0_) refers to pwmout_api.o(i.pwmout_period_ms) for pwmout_period_ms
    ealcdboardgpio.o(i._ZN14EaLcdBoardGPIOC1E7PinNameS0_) refers to ealcdboardgpio.o(i._ZN14EaLcdBoardGPIO15setWriteProtectEb) for EaLcdBoardGPIO::setWriteProtect(bool)
    ealcdboardgpio.o(i._ZN14EaLcdBoardGPIOC1E7PinNameS0_) refers to ealcdboardgpio.o(i._ZN14EaLcdBoardGPIO12set3V3SignalEb) for EaLcdBoardGPIO::set3V3Signal(bool)
    ealcdboardgpio.o(i._ZN14EaLcdBoardGPIOC1E7PinNameS0_) refers to ealcdboardgpio.o(i._ZN14EaLcdBoardGPIO11set5VSignalEb) for EaLcdBoardGPIO::set5VSignal(bool)
    ealcdboardgpio.o(i._ZN14EaLcdBoardGPIOC1E7PinNameS0_) refers to ealcdboardgpio.o(i._ZN14EaLcdBoardGPIO22setDisplayEnableSignalEb) for EaLcdBoardGPIO::setDisplayEnableSignal(bool)
    ealcdboardgpio.o(i._ZN14EaLcdBoardGPIOC1E7PinNameS0_) refers to ealcdboardgpio.o(i._ZN14EaLcdBoardGPIO20setBacklightContrastEj) for EaLcdBoardGPIO::setBacklightContrast(unsigned)
    ealcdboardgpio.o(i._ZN14EaLcdBoardGPIOC1E7PinNameS0_) refers to ealcdboardgpio.o(.constdata__ZTV14EaLcdBoardGPIO) for vtable for EaLcdBoardGPIO
    ealcdboardgpio.o(.ARM.exidx) refers to ealcdboardgpio.o(i._ZN14EaLcdBoardGPIO20setBacklightContrastEj) for i._ZN14EaLcdBoardGPIO20setBacklightContrastEj
    ealcdboardgpio.o(.ARM.exidx) refers to ealcdboardgpio.o(i._ZN14EaLcdBoardGPIO22setDisplayEnableSignalEb) for i._ZN14EaLcdBoardGPIO22setDisplayEnableSignalEb
    ealcdboardgpio.o(.ARM.exidx) refers to ealcdboardgpio.o(i._ZN14EaLcdBoardGPIO11set5VSignalEb) for i._ZN14EaLcdBoardGPIO11set5VSignalEb
    ealcdboardgpio.o(.ARM.exidx) refers to ealcdboardgpio.o(i._ZN14EaLcdBoardGPIO12set3V3SignalEb) for i._ZN14EaLcdBoardGPIO12set3V3SignalEb
    ealcdboardgpio.o(.ARM.exidx) refers to ealcdboardgpio.o(i._ZN14EaLcdBoardGPIO15setWriteProtectEb) for i._ZN14EaLcdBoardGPIO15setWriteProtectEb
    ealcdboardgpio.o(.ARM.exidx) refers to ealcdboardgpio.o(i._ZN14EaLcdBoardGPIOC1E7PinNameS0_) for i._ZN14EaLcdBoardGPIOC1E7PinNameS0_
    ealcdboard.o(i._ZN10EaLcdBoard10eepromReadEPhtt) refers to wait_api.o(i.wait_ms) for wait_ms
    ealcdboard.o(i._ZN10EaLcdBoard10eepromReadEPhtt) refers to i2c.o(i._ZN4mbed3I2C5writeEiPKcib) for mbed::I2C::write(int, const char*, int, bool)
    ealcdboard.o(i._ZN10EaLcdBoard10eepromReadEPhtt) refers to i2c.o(i._ZN4mbed3I2C4readEiPcib) for mbed::I2C::read(int, char*, int, bool)
    ealcdboard.o(i._ZN10EaLcdBoard10execPinSetEPcj) refers to ealcdboard.o(i._Z9port_pin28PortNamei) for port_pin2(PortName, int)
    ealcdboard.o(i._ZN10EaLcdBoard10execPinSetEPcj) refers to gpio_api.o(i.gpio_init) for gpio_init
    ealcdboard.o(i._ZN10EaLcdBoard10execPinSetEPcj) refers to gpio_api.o(i.gpio_dir) for gpio_dir
    ealcdboard.o(i._ZN10EaLcdBoard10execPinSetEPcj) refers to gpio_api.o(i.gpio_mode) for gpio_mode
    ealcdboard.o(i._ZN10EaLcdBoard10execPinSetEPcj) refers to assert.o(i.mbed_assert_internal) for mbed_assert_internal
    ealcdboard.o(i._ZN10EaLcdBoard10execPinSetEPcj) refers to ealcdboard.o(.conststring) for .conststring
    ealcdboard.o(i._ZN10EaLcdBoard10getInitSeqEPci) refers to ealcdboard.o(i._ZN10EaLcdBoard8getStoreEPNS_7store_tE) for EaLcdBoard::getStore(EaLcdBoard::store_t*)
    ealcdboard.o(i._ZN10EaLcdBoard10getInitSeqEPci) refers to ealcdboard.o(i._ZN10EaLcdBoard10eepromReadEPhtt) for EaLcdBoard::eepromRead(unsigned char*, unsigned short, unsigned short)
    ealcdboard.o(i._ZN10EaLcdBoard11eepromWriteEPhtt) refers to wait_api.o(i.wait_ms) for wait_ms
    ealcdboard.o(i._ZN10EaLcdBoard11eepromWriteEPhtt) refers to rt_memcpy_v6.o(.text) for __aeabi_memcpy
    ealcdboard.o(i._ZN10EaLcdBoard11eepromWriteEPhtt) refers to i2c.o(i._ZN4mbed3I2C5writeEiPKcib) for mbed::I2C::write(int, const char*, int, bool)
    ealcdboard.o(i._ZN10EaLcdBoard11execSeqCtrlEPcj) refers to ealcdboard.o(i._Z11str_to_uintPcj) for str_to_uint(char*, unsigned)
    ealcdboard.o(i._ZN10EaLcdBoard11set5VSignalEb) refers to ealcdboard.o(i._ZN10EaLcdBoard15pca9532_setLedsEtt) for EaLcdBoard::pca9532_setLeds(unsigned short, unsigned short)
    ealcdboard.o(i._ZN10EaLcdBoard12checkVersionEPcj) refers to ealcdboard.o(i._Z11str_to_uintPcj) for str_to_uint(char*, unsigned)
    ealcdboard.o(i._ZN10EaLcdBoard12getLcdConfigEPN13LcdController6ConfigE) refers to ealcdboard.o(i._ZN10EaLcdBoard8getStoreEPNS_7store_tE) for EaLcdBoard::getStore(EaLcdBoard::store_t*)
    ealcdboard.o(i._ZN10EaLcdBoard12getLcdConfigEPN13LcdController6ConfigE) refers to ealcdboard.o(i._ZN10EaLcdBoard10eepromReadEPhtt) for EaLcdBoard::eepromRead(unsigned char*, unsigned short, unsigned short)
    ealcdboard.o(i._ZN10EaLcdBoard12set3V3SignalEb) refers to ealcdboard.o(i._ZN10EaLcdBoard15pca9532_setLedsEtt) for EaLcdBoard::pca9532_setLeds(unsigned short, unsigned short)
    ealcdboard.o(i._ZN10EaLcdBoard13getDisplayMfgEPci) refers to ealcdboard.o(i._ZN10EaLcdBoard8getStoreEPNS_7store_tE) for EaLcdBoard::getStore(EaLcdBoard::store_t*)
    ealcdboard.o(i._ZN10EaLcdBoard13getDisplayMfgEPci) refers to strncpy.o(.text) for strncpy
    ealcdboard.o(i._ZN10EaLcdBoard14getDisplayNameEPci) refers to ealcdboard.o(i._ZN10EaLcdBoard8getStoreEPNS_7store_tE) for EaLcdBoard::getStore(EaLcdBoard::store_t*)
    ealcdboard.o(i._ZN10EaLcdBoard14getDisplayNameEPci) refers to strncpy.o(.text) for strncpy
    ealcdboard.o(i._ZN10EaLcdBoard14setFrameBufferEj) refers to lcdcontroller.o(i._ZN13LcdController8setPowerEb) for LcdController::setPower(bool)
    ealcdboard.o(i._ZN10EaLcdBoard14setFrameBufferEj) refers to lcdcontroller.o(i._ZN13LcdController14setFrameBufferEj) for LcdController::setFrameBuffer(unsigned)
    ealcdboard.o(i._ZN10EaLcdBoard15getPowerDownSeqEPci) refers to ealcdboard.o(i._ZN10EaLcdBoard8getStoreEPNS_7store_tE) for EaLcdBoard::getStore(EaLcdBoard::store_t*)
    ealcdboard.o(i._ZN10EaLcdBoard15getPowerDownSeqEPci) refers to ealcdboard.o(i._ZN10EaLcdBoard10eepromReadEPhtt) for EaLcdBoard::eepromRead(unsigned char*, unsigned short, unsigned short)
    ealcdboard.o(i._ZN10EaLcdBoard15parseInitStringEPcPN13LcdController6ConfigE) refers to ealcdboard.o(i._ZN10EaLcdBoard12checkVersionEPcj) for EaLcdBoard::checkVersion(char*, unsigned)
    ealcdboard.o(i._ZN10EaLcdBoard15parseInitStringEPcPN13LcdController6ConfigE) refers to ealcdboard.o(i._ZN10EaLcdBoard11execSeqCtrlEPcj) for EaLcdBoard::execSeqCtrl(char*, unsigned)
    ealcdboard.o(i._ZN10EaLcdBoard15parseInitStringEPcPN13LcdController6ConfigE) refers to ealcdboard.o(i._ZN10EaLcdBoard9execDelayEPcj) for EaLcdBoard::execDelay(char*, unsigned)
    ealcdboard.o(i._ZN10EaLcdBoard15parseInitStringEPcPN13LcdController6ConfigE) refers to lcdcontroller.o(i._ZN13LcdController4openEPNS_6ConfigE) for LcdController::open(LcdController::Config*)
    ealcdboard.o(i._ZN10EaLcdBoard15parseInitStringEPcPN13LcdController6ConfigE) refers to ealcdboard.o(i._ZN10EaLcdBoard10execPinSetEPcj) for EaLcdBoard::execPinSet(char*, unsigned)
    ealcdboard.o(i._ZN10EaLcdBoard15pca9532_setLedsEtt) refers to ealcdboard.o(i._ZN10EaLcdBoard7setLedsEv) for EaLcdBoard::setLeds()
    ealcdboard.o(i._ZN10EaLcdBoard15setWriteProtectEb) refers to ealcdboard.o(i._ZN10EaLcdBoard15pca9532_setLedsEtt) for EaLcdBoard::pca9532_setLeds(unsigned short, unsigned short)
    ealcdboard.o(i._ZN10EaLcdBoard15storeParametersEPKcS1_PN13LcdController6ConfigES1_S1_PNS_13TouchParams_tEb) refers to strncpy.o(.text) for strncpy
    ealcdboard.o(i._ZN10EaLcdBoard15storeParametersEPKcS1_PN13LcdController6ConfigES1_S1_PNS_13TouchParams_tEb) refers to strlen.o(.text) for strlen
    ealcdboard.o(i._ZN10EaLcdBoard15storeParametersEPKcS1_PN13LcdController6ConfigES1_S1_PNS_13TouchParams_tEb) refers to ealcdboard.o(i._ZN10EaLcdBoard11eepromWriteEPhtt) for EaLcdBoard::eepromWrite(unsigned char*, unsigned short, unsigned short)
    ealcdboard.o(i._ZN10EaLcdBoard18getTouchParametersEPNS_13TouchParams_tE) refers to ealcdboard.o(i._ZN10EaLcdBoard8getStoreEPNS_7store_tE) for EaLcdBoard::getStore(EaLcdBoard::store_t*)
    ealcdboard.o(i._ZN10EaLcdBoard18getTouchParametersEPNS_13TouchParams_tE) refers to ealcdboard.o(i._ZN10EaLcdBoard10eepromReadEPhtt) for EaLcdBoard::eepromRead(unsigned char*, unsigned short, unsigned short)
    ealcdboard.o(i._ZN10EaLcdBoard20setBacklightContrastEj) refers to ealcdboard.o(i._ZN10EaLcdBoard21pca9532_setBlink0DutyEh) for EaLcdBoard::pca9532_setBlink0Duty(unsigned char)
    ealcdboard.o(i._ZN10EaLcdBoard20setBacklightContrastEj) refers to ealcdboard.o(i._ZN10EaLcdBoard23pca9532_setBlink0PeriodEh) for EaLcdBoard::pca9532_setBlink0Period(unsigned char)
    ealcdboard.o(i._ZN10EaLcdBoard20setBacklightContrastEj) refers to ealcdboard.o(i._ZN10EaLcdBoard21pca9532_setBlink0LedsEt) for EaLcdBoard::pca9532_setBlink0Leds(unsigned short)
    ealcdboard.o(i._ZN10EaLcdBoard21pca9532_setBlink0DutyEh) refers to i2c.o(i._ZN4mbed3I2C5writeEiPKcib) for mbed::I2C::write(int, const char*, int, bool)
    ealcdboard.o(i._ZN10EaLcdBoard21pca9532_setBlink0LedsEt) refers to ealcdboard.o(i._ZN10EaLcdBoard7setLedsEv) for EaLcdBoard::setLeds()
    ealcdboard.o(i._ZN10EaLcdBoard22setDisplayEnableSignalEb) refers to ealcdboard.o(i._ZN10EaLcdBoard15pca9532_setLedsEtt) for EaLcdBoard::pca9532_setLeds(unsigned short, unsigned short)
    ealcdboard.o(i._ZN10EaLcdBoard23pca9532_setBlink0PeriodEh) refers to i2c.o(i._ZN4mbed3I2C5writeEiPKcib) for mbed::I2C::write(int, const char*, int, bool)
    ealcdboard.o(i._ZN10EaLcdBoard4openEPN13LcdController6ConfigEPc) refers to ealcdboard.o(i._ZN10EaLcdBoard12getLcdConfigEPN13LcdController6ConfigE) for EaLcdBoard::getLcdConfig(LcdController::Config*)
    ealcdboard.o(i._ZN10EaLcdBoard4openEPN13LcdController6ConfigEPc) refers to ealcdboard.o(i._ZN10EaLcdBoard10getInitSeqEPci) for EaLcdBoard::getInitSeq(char*, int)
    ealcdboard.o(i._ZN10EaLcdBoard4openEPN13LcdController6ConfigEPc) refers to ealcdboard.o(i._ZN10EaLcdBoard15parseInitStringEPcPN13LcdController6ConfigE) for EaLcdBoard::parseInitString(char*, LcdController::Config*)
    ealcdboard.o(i._ZN10EaLcdBoard4openEPN13LcdController6ConfigEPc) refers to ealcdboard.o(.bss) for eaLcdTmpBuffer
    ealcdboard.o(i._ZN10EaLcdBoard5closeEv) refers to lcdcontroller.o(i._ZN13LcdController8setPowerEb) for LcdController::setPower(bool)
    ealcdboard.o(i._ZN10EaLcdBoard5closeEv) refers to lcdcontroller.o(i._ZN13LcdController5closeEv) for LcdController::close()
    ealcdboard.o(i._ZN10EaLcdBoard7setLedsEv) refers to ealcdboard.o(i._ZN10EaLcdBoard11setLsStatesEtPhh) for EaLcdBoard::setLsStates(unsigned short, unsigned char*, unsigned char)
    ealcdboard.o(i._ZN10EaLcdBoard7setLedsEv) refers to i2c.o(i._ZN4mbed3I2C5writeEiPKcib) for mbed::I2C::write(int, const char*, int, bool)
    ealcdboard.o(i._ZN10EaLcdBoard8getStoreEPNS_7store_tE) refers to ealcdboard.o(i._ZN10EaLcdBoard10eepromReadEPhtt) for EaLcdBoard::eepromRead(unsigned char*, unsigned short, unsigned short)
    ealcdboard.o(i._ZN10EaLcdBoard9execDelayEPcj) refers to ealcdboard.o(i._Z11str_to_uintPcj) for str_to_uint(char*, unsigned)
    ealcdboard.o(i._ZN10EaLcdBoard9execDelayEPcj) refers to wait_api.o(i.wait_ms) for wait_ms
    ealcdboard.o(i._ZN10EaLcdBoardC1E7PinNameS0_) refers to i2c.o(i._ZN4mbed3I2CC1E7PinNameS1_) for mbed::I2C::I2C(PinName, PinName)
    ealcdboard.o(i._ZN10EaLcdBoardC1E7PinNameS0_) refers to lcdcontroller.o(i._ZN13LcdControllerC1Ev) for LcdController::LcdController()
    ealcdboard.o(i._ZN10EaLcdBoardC1E7PinNameS0_) refers to ealcdboard.o(.constdata__ZTV10EaLcdBoard) for vtable for EaLcdBoard
    ealcdboard.o(.ARM.exidx) refers to ealcdboard.o(i._Z9port_pin28PortNamei) for i._Z9port_pin28PortNamei
    ealcdboard.o(.ARM.exidx) refers to ealcdboard.o(i._Z11str_to_uintPcj) for i._Z11str_to_uintPcj
    ealcdboard.o(.ARM.exidx) refers to ealcdboard.o(i._ZN10EaLcdBoardC1E7PinNameS0_) for i._ZN10EaLcdBoardC1E7PinNameS0_
    ealcdboard.o(.ARM.exidx) refers to ealcdboard.o(i._ZN10EaLcdBoard10execPinSetEPcj) for i._ZN10EaLcdBoard10execPinSetEPcj
    ealcdboard.o(.ARM.exidx) refers to ealcdboard.o(i._ZN10EaLcdBoard9execDelayEPcj) for i._ZN10EaLcdBoard9execDelayEPcj
    ealcdboard.o(.ARM.exidx) refers to ealcdboard.o(i._ZN10EaLcdBoard11execSeqCtrlEPcj) for i._ZN10EaLcdBoard11execSeqCtrlEPcj
    ealcdboard.o(.ARM.exidx) refers to ealcdboard.o(i._ZN10EaLcdBoard12checkVersionEPcj) for i._ZN10EaLcdBoard12checkVersionEPcj
    ealcdboard.o(.ARM.exidx) refers to ealcdboard.o(i._ZN10EaLcdBoard15parseInitStringEPcPN13LcdController6ConfigE) for i._ZN10EaLcdBoard15parseInitStringEPcPN13LcdController6ConfigE
    ealcdboard.o(.ARM.exidx) refers to ealcdboard.o(i._ZN10EaLcdBoard10eepromReadEPhtt) for i._ZN10EaLcdBoard10eepromReadEPhtt
    ealcdboard.o(.ARM.exidx) refers to ealcdboard.o(i._ZN10EaLcdBoard8getStoreEPNS_7store_tE) for i._ZN10EaLcdBoard8getStoreEPNS_7store_tE
    ealcdboard.o(.ARM.exidx) refers to ealcdboard.o(i._ZN10EaLcdBoard10getInitSeqEPci) for i._ZN10EaLcdBoard10getInitSeqEPci
    ealcdboard.o(.ARM.exidx) refers to ealcdboard.o(i._ZN10EaLcdBoard12getLcdConfigEPN13LcdController6ConfigE) for i._ZN10EaLcdBoard12getLcdConfigEPN13LcdController6ConfigE
    ealcdboard.o(.ARM.exidx) refers to ealcdboard.o(i._ZN10EaLcdBoard4openEPN13LcdController6ConfigEPc) for i._ZN10EaLcdBoard4openEPN13LcdController6ConfigEPc
    ealcdboard.o(.ARM.exidx) refers to ealcdboard.o(i._ZN10EaLcdBoard5closeEv) for i._ZN10EaLcdBoard5closeEv
    ealcdboard.o(.ARM.exidx) refers to ealcdboard.o(i._ZN10EaLcdBoard14setFrameBufferEj) for i._ZN10EaLcdBoard14setFrameBufferEj
    ealcdboard.o(.ARM.exidx) refers to ealcdboard.o(i._ZN10EaLcdBoard14getDisplayNameEPci) for i._ZN10EaLcdBoard14getDisplayNameEPci
    ealcdboard.o(.ARM.exidx) refers to ealcdboard.o(i._ZN10EaLcdBoard13getDisplayMfgEPci) for i._ZN10EaLcdBoard13getDisplayMfgEPci
    ealcdboard.o(.ARM.exidx) refers to ealcdboard.o(i._ZN10EaLcdBoard15getPowerDownSeqEPci) for i._ZN10EaLcdBoard15getPowerDownSeqEPci
    ealcdboard.o(.ARM.exidx) refers to ealcdboard.o(i._ZN10EaLcdBoard18getTouchParametersEPNS_13TouchParams_tE) for i._ZN10EaLcdBoard18getTouchParametersEPNS_13TouchParams_tE
    ealcdboard.o(.ARM.exidx) refers to ealcdboard.o(i._ZN10EaLcdBoard11eepromWriteEPhtt) for i._ZN10EaLcdBoard11eepromWriteEPhtt
    ealcdboard.o(.ARM.exidx) refers to ealcdboard.o(i._ZN10EaLcdBoard15storeParametersEPKcS1_PN13LcdController6ConfigES1_S1_PNS_13TouchParams_tEb) for i._ZN10EaLcdBoard15storeParametersEPKcS1_PN13LcdController6ConfigES1_S1_PNS_13TouchParams_tEb
    ealcdboard.o(.ARM.exidx) refers to ealcdboard.o(i._ZN10EaLcdBoard11setLsStatesEtPhh) for i._ZN10EaLcdBoard11setLsStatesEtPhh
    ealcdboard.o(.ARM.exidx) refers to ealcdboard.o(i._ZN10EaLcdBoard7setLedsEv) for i._ZN10EaLcdBoard7setLedsEv
    ealcdboard.o(.ARM.exidx) refers to ealcdboard.o(i._ZN10EaLcdBoard15pca9532_setLedsEtt) for i._ZN10EaLcdBoard15pca9532_setLedsEtt
    ealcdboard.o(.ARM.exidx) refers to ealcdboard.o(i._ZN10EaLcdBoard23pca9532_setBlink0PeriodEh) for i._ZN10EaLcdBoard23pca9532_setBlink0PeriodEh
    ealcdboard.o(.ARM.exidx) refers to ealcdboard.o(i._ZN10EaLcdBoard21pca9532_setBlink0DutyEh) for i._ZN10EaLcdBoard21pca9532_setBlink0DutyEh
    ealcdboard.o(.ARM.exidx) refers to ealcdboard.o(i._ZN10EaLcdBoard21pca9532_setBlink0LedsEt) for i._ZN10EaLcdBoard21pca9532_setBlink0LedsEt
    ealcdboard.o(.ARM.exidx) refers to ealcdboard.o(i._ZN10EaLcdBoard15setWriteProtectEb) for i._ZN10EaLcdBoard15setWriteProtectEb
    ealcdboard.o(.ARM.exidx) refers to ealcdboard.o(i._ZN10EaLcdBoard12set3V3SignalEb) for i._ZN10EaLcdBoard12set3V3SignalEb
    ealcdboard.o(.ARM.exidx) refers to ealcdboard.o(i._ZN10EaLcdBoard11set5VSignalEb) for i._ZN10EaLcdBoard11set5VSignalEb
    ealcdboard.o(.ARM.exidx) refers to ealcdboard.o(i._ZN10EaLcdBoard22setDisplayEnableSignalEb) for i._ZN10EaLcdBoard22setDisplayEnableSignalEb
    ealcdboard.o(.ARM.exidx) refers to ealcdboard.o(i._ZN10EaLcdBoard20setBacklightContrastEj) for i._ZN10EaLcdBoard20setBacklightContrastEj
    gfxfb.o(i._ZN5GFXFb9drawPixelEsst) refers to adafruit_gfx.o(i._ZN12Adafruit_GFX5widthEv) for Adafruit_GFX::width()
    gfxfb.o(i._ZN5GFXFb9drawPixelEsst) refers to adafruit_gfx.o(i._ZN12Adafruit_GFX6heightEv) for Adafruit_GFX::height()
    gfxfb.o(i._ZN5GFXFbC1EttPt) refers to adafruit_gfx.o(i._ZN12Adafruit_GFXC2Ess) for Adafruit_GFX::Adafruit_GFX__sub_object(short, short)
    gfxfb.o(i._ZN5GFXFbC1EttPt) refers to gfxfb.o(.constdata__ZTV5GFXFb) for vtable for GFXFb
    gfxfb.o(.ARM.exidx) refers to gfxfb.o(i._ZN5GFXFbC1EttPt) for i._ZN5GFXFbC1EttPt
    gfxfb.o(.ARM.exidx) refers to gfxfb.o(i._ZN5GFXFb9drawPixelEsst) for i._ZN5GFXFb9drawPixelEsst
    gfxfb.o(.ARM.exidx) refers to gfxfb.o(i._ZN5GFXFb13drawFastVLineEssst) for i._ZN5GFXFb13drawFastVLineEssst
    gfxfb.o(.ARM.exidx) refers to gfxfb.o(i._ZN5GFXFb13drawFastHLineEssst) for i._ZN5GFXFb13drawFastHLineEssst
    gfxfb.o(.ARM.exidx) refers to gfxfb.o(i._ZN5GFXFb10fillScreenEt) for i._ZN5GFXFb10fillScreenEt
    gfxfb.o(.ARM.exidx) refers to gfxfb.o(i._ZN5GFXFb11writeStringEPKc) for i._ZN5GFXFb11writeStringEPKc
    gfxfb.o(.ARM.exidx) refers to gfxfb.o(i._ZN5GFXFb14getStringWidthEPKc) for i._ZN5GFXFb14getStringWidthEPKc
    gfxfb.o(.ARM.exidx) refers to gfxfb.o(i._ZN5GFXFb15getStringHeightEPKc) for i._ZN5GFXFb15getStringHeightEPKc
    sdram.o(i._Z10sdram_initv) refers to sdram.o(i._Z9pinConfigv) for pinConfig()
    sdram.o(i._Z10sdram_initv) refers to wait_api.o(i.wait) for wait
    sdram.o(i._Z10sdram_initv) refers to sdram.o(i._Z11calibrationv) for calibration()
    sdram.o(i._Z10sdram_initv) refers to sdram.o(i._Z11find_cmddlyv) for find_cmddly()
    sdram.o(i._Z10sdram_initv) refers to sdram.o(i._Z13find_fbclkdlyv) for find_fbclkdly()
    sdram.o(i._Z10sdram_initv) refers to sdram.o(i._Z13adjust_timingv) for adjust_timing()
    sdram.o(i._Z10sdram_initv) refers to sdram.o(.data) for initialized
    sdram.o(i._Z11find_cmddlyv) refers to sdram.o(i._Z10sdram_testv) for sdram_test()
    sdram.o(i._Z13adjust_timingv) refers to sdram.o(i._Z11calibrationv) for calibration()
    sdram.o(i._Z13adjust_timingv) refers to sdram.o(.data) for ringosccount
    sdram.o(i._Z13find_fbclkdlyv) refers to sdram.o(i._Z10sdram_testv) for sdram_test()
    sdram.o(i._Z24sdram_disableMallocSdramv) refers to sdram.o(.data) for okToUseSdramForHeap
    sdram.o(i.__rt_heap_extend) refers to sdram.o(i._Z10sdram_initv) for sdram_init()
    sdram.o(i.__rt_heap_extend) refers to sdram.o(.data) for okToUseSdramForHeap
    sdram.o(.ARM.exidx) refers to sdram.o(i._Z11calibrationv) for i._Z11calibrationv
    sdram.o(.ARM.exidx) refers to sdram.o(i._Z13adjust_timingv) for i._Z13adjust_timingv
    sdram.o(.ARM.exidx) refers to sdram.o(i._Z10sdram_testv) for i._Z10sdram_testv
    sdram.o(.ARM.exidx) refers to sdram.o(i._Z13find_fbclkdlyv) for i._Z13find_fbclkdlyv
    sdram.o(.ARM.exidx) refers to sdram.o(i._Z11find_cmddlyv) for i._Z11find_cmddlyv
    sdram.o(.ARM.exidx) refers to sdram.o(i._Z9pinConfigv) for i._Z9pinConfigv
    sdram.o(.ARM.exidx) refers to sdram.o(i._Z10sdram_initv) for i._Z10sdram_initv
    sdram.o(.ARM.exidx) refers to sdram.o(i.__rt_heap_extend) for i.__rt_heap_extend
    sdram.o(.ARM.exidx) refers to sdram.o(i.__reserved_stack_size) for i.__reserved_stack_size
    sdram.o(.ARM.exidx) refers to sdram.o(i._Z24sdram_disableMallocSdramv) for i._Z24sdram_disableMallocSdramv
    us_ticker_api.o(i.get_us_ticker_data) refers to us_ticker_api.o(.constdata) for us_data
    us_ticker_api.o(i.us_ticker_irq_handler) refers to ticker_api.o(i.ticker_irq_handler) for ticker_irq_handler
    us_ticker_api.o(i.us_ticker_irq_handler) refers to us_ticker_api.o(.constdata) for us_data
    us_ticker_api.o(.constdata) refers to us_ticker.o(i.us_ticker_init) for us_ticker_init
    us_ticker_api.o(.constdata) refers to us_ticker.o(i.us_ticker_read) for us_ticker_read
    us_ticker_api.o(.constdata) refers to us_ticker.o(i.us_ticker_disable_interrupt) for us_ticker_disable_interrupt
    us_ticker_api.o(.constdata) refers to us_ticker.o(i.us_ticker_clear_interrupt) for us_ticker_clear_interrupt
    us_ticker_api.o(.constdata) refers to us_ticker.o(i.us_ticker_set_interrupt) for us_ticker_set_interrupt
    us_ticker_api.o(.constdata) refers to us_ticker_api.o(.data) for events
    filebase.o(i._ZN4mbed8FileBase3getEi) refers to filebase.o(.data) for mbed::FileBase::_head
    filebase.o(i._ZN4mbed8FileBase6lookupEPKcj) refers to strncmp.o(.text) for strncmp
    filebase.o(i._ZN4mbed8FileBase6lookupEPKcj) refers to strlen.o(.text) for strlen
    filebase.o(i._ZN4mbed8FileBase6lookupEPKcj) refers to filebase.o(.data) for mbed::FileBase::_head
    filebase.o(i._ZN4mbed8FileBaseC1EPKcNS_8PathTypeE) refers to filebase.o(.constdata__ZTVN4mbed8FileBaseE) for vtable for mbed::FileBase
    filebase.o(i._ZN4mbed8FileBaseC1EPKcNS_8PathTypeE) refers to filebase.o(.data) for mbed::FileBase::_head
    filebase.o(i._ZN4mbed8FileBaseD0Ev) refers to filebase.o(i._ZN4mbed8FileBaseD1Ev) for mbed::FileBase::~FileBase()
    filebase.o(i._ZN4mbed8FileBaseD0Ev) refers to delete.o(i._ZdlPv) for operator delete (void*)
    filebase.o(i._ZN4mbed8FileBaseD1Ev) refers to filebase.o(.constdata__ZTVN4mbed8FileBaseE) for vtable for mbed::FileBase
    filebase.o(i._ZN4mbed8FileBaseD1Ev) refers to filebase.o(.data) for mbed::FileBase::_head
    filebase.o(.ARM.exidx) refers to filebase.o(i._ZN4mbed8FileBaseC1EPKcNS_8PathTypeE) for i._ZN4mbed8FileBaseC1EPKcNS_8PathTypeE
    filebase.o(.ARM.exidx) refers to filebase.o(i._ZN4mbed8FileBaseD1Ev) for i._ZN4mbed8FileBaseD1Ev
    filebase.o(.ARM.exidx) refers to filebase.o(i._ZN4mbed8FileBaseD0Ev) for i._ZN4mbed8FileBaseD0Ev
    filebase.o(.ARM.exidx) refers to filebase.o(i._ZN4mbed8FileBase7getNameEv) for i._ZN4mbed8FileBase7getNameEv
    filebase.o(.ARM.exidx) refers to filebase.o(i._ZN4mbed8FileBase11getPathTypeEv) for i._ZN4mbed8FileBase11getPathTypeEv
    filebase.o(.ARM.exidx) refers to filebase.o(i._ZN4mbed8FileBase6lookupEPKcj) for i._ZN4mbed8FileBase6lookupEPKcj
    filebase.o(.ARM.exidx) refers to filebase.o(i._ZN4mbed8FileBase3getEi) for i._ZN4mbed8FileBase3getEi
    filepath.o(i._ZN4mbed8FilePath10fileSystemEv) refers to filepath.o(i._ZN4mbed8FilePath12isFileSystemEv) for mbed::FilePath::isFileSystem()
    filepath.o(i._ZN4mbed8FilePath12isFileSystemEv) refers to filebase.o(i._ZN4mbed8FileBase11getPathTypeEv) for mbed::FileBase::getPathType()
    filepath.o(i._ZN4mbed8FilePath4fileEv) refers to filepath.o(i._ZN4mbed8FilePath6isFileEv) for mbed::FilePath::isFile()
    filepath.o(i._ZN4mbed8FilePath6isFileEv) refers to filebase.o(i._ZN4mbed8FileBase11getPathTypeEv) for mbed::FileBase::getPathType()
    filepath.o(i._ZN4mbed8FilePathC1EPKc) refers to filebase.o(i._ZN4mbed8FileBase6lookupEPKcj) for mbed::FileBase::lookup(const char*, unsigned)
    filepath.o(.ARM.exidx) refers to filepath.o(i._ZN4mbed8FilePathC1EPKc) for i._ZN4mbed8FilePathC1EPKc
    filepath.o(.ARM.exidx) refers to filepath.o(i._ZN4mbed8FilePath8fileNameEv) for i._ZN4mbed8FilePath8fileNameEv
    filepath.o(.ARM.exidx) refers to filepath.o(i._ZN4mbed8FilePath12isFileSystemEv) for i._ZN4mbed8FilePath12isFileSystemEv
    filepath.o(.ARM.exidx) refers to filepath.o(i._ZN4mbed8FilePath10fileSystemEv) for i._ZN4mbed8FilePath10fileSystemEv
    filepath.o(.ARM.exidx) refers to filepath.o(i._ZN4mbed8FilePath6isFileEv) for i._ZN4mbed8FilePath6isFileEv
    filepath.o(.ARM.exidx) refers to filepath.o(i._ZN4mbed8FilePath4fileEv) for i._ZN4mbed8FilePath4fileEv
    filepath.o(.ARM.exidx) refers to filepath.o(i._ZN4mbed8FilePath6existsEv) for i._ZN4mbed8FilePath6existsEv
    filesystemlike.o(i._ZN4mbed14FileSystemLike7opendirEv) refers to new.o(i._Znwj) for operator new(unsigned)
    filesystemlike.o(i._ZN4mbed14FileSystemLike7opendirEv) refers to rt_memclr_w.o(.text) for __aeabi_memclr4
    filesystemlike.o(i._ZN4mbed14FileSystemLike7opendirEv) refers to filesystemlike.o(.constdata__ZTVN4mbed9DirHandleE) for vtable for mbed::DirHandle
    filesystemlike.o(i._ZN4mbed14FileSystemLike7opendirEv) refers to filesystemlike.o(.constdata__ZTVN4mbed13BaseDirHandleE) for vtable for mbed::BaseDirHandle
    filesystemlike.o(i._ZN4mbed14FileSystemLikeC2EPKc) refers to filebase.o(i._ZN4mbed8FileBaseC1EPKcNS_8PathTypeE) for mbed::FileBase::FileBase(const char*, mbed::PathType)
    filesystemlike.o(i._ZN4mbed14FileSystemLikeC2EPKc) refers to filesystemlike.o(.constdata__ZTVN4mbed14FileSystemLikeE) for vtable for mbed::FileSystemLike
    filesystemlike.o(i._ZN4mbed14FileSystemLikeD0Ev) refers to filesystemlike.o(i._ZN4mbed14FileSystemLikeD2Ev) for mbed::FileSystemLike::~FileSystemLike__sub_object()
    filesystemlike.o(i._ZN4mbed14FileSystemLikeD0Ev) refers to delete.o(i._ZdlPv) for operator delete (void*)
    filesystemlike.o(i._ZN4mbed14FileSystemLikeD2Ev) refers to filebase.o(i._ZN4mbed8FileBaseD1Ev) for mbed::FileBase::~FileBase()
    filesystemlike.o(.ARM.exidx) refers to filesystemlike.o(i._ZN4mbed14FileSystemLikeC2EPKc) for i._ZN4mbed14FileSystemLikeC2EPKc
    filesystemlike.o(.ARM.exidx) refers to filesystemlike.o(i._ZN4mbed14FileSystemLikeD2Ev) for i._ZN4mbed14FileSystemLikeD2Ev
    filesystemlike.o(.ARM.exidx) refers to filesystemlike.o(i._ZN4mbed14FileSystemLikeD0Ev) for i._ZN4mbed14FileSystemLikeD0Ev
    filesystemlike.o(.ARM.exidx) refers to filesystemlike.o(i._ZN4mbed14FileSystemLike7opendirEv) for i._ZN4mbed14FileSystemLike7opendirEv
    pinmap.o(i.pin_function) refers to assert.o(i.mbed_assert_internal) for mbed_assert_internal
    pinmap.o(i.pin_mode) refers to assert.o(i.mbed_assert_internal) for mbed_assert_internal
    i2c_api.o(i.i2c_byte_read) refers to i2c_api.o(i.i2c_do_read) for i2c_do_read
    i2c_api.o(i.i2c_byte_write) refers to i2c_api.o(i.i2c_do_write) for i2c_do_write
    i2c_api.o(i.i2c_clear_SI) refers to i2c_api.o(i.i2c_conclr) for i2c_conclr
    i2c_api.o(i.i2c_do_read) refers to i2c_api.o(i.i2c_conclr) for i2c_conclr
    i2c_api.o(i.i2c_do_read) refers to i2c_api.o(i.i2c_conset) for i2c_conset
    i2c_api.o(i.i2c_do_read) refers to i2c_api.o(i.i2c_clear_SI) for i2c_clear_SI
    i2c_api.o(i.i2c_do_read) refers to i2c_api.o(i.i2c_wait_SI) for i2c_wait_SI
    i2c_api.o(i.i2c_do_write) refers to i2c_api.o(i.i2c_clear_SI) for i2c_clear_SI
    i2c_api.o(i.i2c_do_write) refers to i2c_api.o(i.i2c_wait_SI) for i2c_wait_SI
    i2c_api.o(i.i2c_do_write) refers to i2c_api.o(i.i2c_status) for i2c_status
    i2c_api.o(i.i2c_frequency) refers to system_lpc407x_8x_177x_8x.o(.data) for PeripheralClock
    i2c_api.o(i.i2c_init) refers to pinmap_common.o(i.pinmap_peripheral) for pinmap_peripheral
    i2c_api.o(i.i2c_init) refers to pinmap_common.o(i.pinmap_merge) for pinmap_merge
    i2c_api.o(i.i2c_init) refers to assert.o(i.mbed_assert_internal) for mbed_assert_internal
    i2c_api.o(i.i2c_init) refers to i2c_api.o(i.i2c_frequency) for i2c_frequency
    i2c_api.o(i.i2c_init) refers to i2c_api.o(i.i2c_conclr) for i2c_conclr
    i2c_api.o(i.i2c_init) refers to pinmap_common.o(i.pinmap_pinout) for pinmap_pinout
    i2c_api.o(i.i2c_init) refers to pinmap.o(i.pin_mode) for pin_mode
    i2c_api.o(i.i2c_init) refers to i2c_api.o(.constdata) for PinMap_I2C_SDA
    i2c_api.o(i.i2c_read) refers to i2c_api.o(i.i2c_start) for i2c_start
    i2c_api.o(i.i2c_read) refers to i2c_api.o(i.i2c_stop) for i2c_stop
    i2c_api.o(i.i2c_read) refers to i2c_api.o(i.i2c_do_write) for i2c_do_write
    i2c_api.o(i.i2c_read) refers to i2c_api.o(i.i2c_do_read) for i2c_do_read
    i2c_api.o(i.i2c_read) refers to i2c_api.o(i.i2c_status) for i2c_status
    i2c_api.o(i.i2c_reset) refers to i2c_api.o(i.i2c_stop) for i2c_stop
    i2c_api.o(i.i2c_slave_address) refers to i2c_api.o(.constdata) for I2C_addr_offset
    i2c_api.o(i.i2c_slave_mode) refers to i2c_api.o(i.i2c_conclr) for i2c_conclr
    i2c_api.o(i.i2c_slave_mode) refers to i2c_api.o(i.i2c_conset) for i2c_conset
    i2c_api.o(i.i2c_slave_read) refers to i2c_api.o(i.i2c_clear_SI) for i2c_clear_SI
    i2c_api.o(i.i2c_slave_read) refers to i2c_api.o(i.i2c_wait_SI) for i2c_wait_SI
    i2c_api.o(i.i2c_slave_read) refers to i2c_api.o(i.i2c_status) for i2c_status
    i2c_api.o(i.i2c_slave_read) refers to i2c_api.o(i.i2c_stop) for i2c_stop
    i2c_api.o(i.i2c_slave_receive) refers to i2c_api.o(i.i2c_status) for i2c_status
    i2c_api.o(i.i2c_slave_write) refers to i2c_api.o(i.i2c_do_write) for i2c_do_write
    i2c_api.o(i.i2c_slave_write) refers to i2c_api.o(i.i2c_stop) for i2c_stop
    i2c_api.o(i.i2c_slave_write) refers to i2c_api.o(i.i2c_clear_SI) for i2c_clear_SI
    i2c_api.o(i.i2c_write) refers to i2c_api.o(i.i2c_start) for i2c_start
    i2c_api.o(i.i2c_write) refers to i2c_api.o(i.i2c_stop) for i2c_stop
    i2c_api.o(i.i2c_write) refers to i2c_api.o(i.i2c_do_write) for i2c_do_write
    pwmout_api.o(i.pwmout_init) refers to pinmap_common.o(i.pinmap_peripheral) for pinmap_peripheral
    pwmout_api.o(i.pwmout_init) refers to assert.o(i.mbed_assert_internal) for mbed_assert_internal
    pwmout_api.o(i.pwmout_init) refers to pwmout_api.o(i.pwmout_period_ms) for pwmout_period_ms
    pwmout_api.o(i.pwmout_init) refers to pwmout_api.o(i.pwmout_write) for pwmout_write
    pwmout_api.o(i.pwmout_init) refers to pinmap_common.o(i.pinmap_pinout) for pinmap_pinout
    pwmout_api.o(i.pwmout_init) refers to pwmout_api.o(.constdata) for PinMap_PWM
    pwmout_api.o(i.pwmout_init) refers to pwmout_api.o(.conststring) for .conststring
    pwmout_api.o(i.pwmout_init) refers to system_lpc407x_8x_177x_8x.o(.data) for PeripheralClock
    pwmout_api.o(i.pwmout_init) refers to pwmout_api.o(.data) for pwm_clock_mhz
    pwmout_api.o(i.pwmout_period) refers to pwmout_api.o(i.pwmout_period_us) for pwmout_period_us
    pwmout_api.o(i.pwmout_period_ms) refers to pwmout_api.o(i.pwmout_period_us) for pwmout_period_us
    pwmout_api.o(i.pwmout_period_us) refers to pwmout_api.o(.data) for pwm_clock_mhz
    pwmout_api.o(i.pwmout_pulsewidth) refers to pwmout_api.o(i.pwmout_pulsewidth_us) for pwmout_pulsewidth_us
    pwmout_api.o(i.pwmout_pulsewidth_ms) refers to pwmout_api.o(i.pwmout_pulsewidth_us) for pwmout_pulsewidth_us
    pwmout_api.o(i.pwmout_pulsewidth_us) refers to pwmout_api.o(.data) for pwm_clock_mhz
    serial_api.o(i.serial_baud) refers to system_lpc407x_8x_177x_8x.o(.data) for PeripheralClock
    serial_api.o(i.serial_format) refers to assert.o(i.mbed_assert_internal) for mbed_assert_internal
    serial_api.o(i.serial_format) refers to serial_api.o(.conststring) for .conststring
    serial_api.o(i.serial_free) refers to serial_api.o(.bss) for serial_irq_ids
    serial_api.o(i.serial_getc) refers to serial_api.o(i.serial_readable) for serial_readable
    serial_api.o(i.serial_init) refers to pinmap_common.o(i.pinmap_peripheral) for pinmap_peripheral
    serial_api.o(i.serial_init) refers to pinmap_common.o(i.pinmap_merge) for pinmap_merge
    serial_api.o(i.serial_init) refers to assert.o(i.mbed_assert_internal) for mbed_assert_internal
    serial_api.o(i.serial_init) refers to serial_api.o(i.serial_baud) for serial_baud
    serial_api.o(i.serial_init) refers to serial_api.o(i.serial_format) for serial_format
    serial_api.o(i.serial_init) refers to pinmap_common.o(i.pinmap_pinout) for pinmap_pinout
    serial_api.o(i.serial_init) refers to pinmap.o(i.pin_mode) for pin_mode
    serial_api.o(i.serial_init) refers to serial_api.o(.constdata) for PinMap_UART_TX
    serial_api.o(i.serial_init) refers to serial_api.o(.conststring) for .conststring
    serial_api.o(i.serial_init) refers to serial_api.o(.data) for stdio_uart_inited
    serial_api.o(i.serial_irq_handler) refers to serial_api.o(.data) for irq_handler
    serial_api.o(i.serial_irq_handler) refers to serial_api.o(.bss) for serial_irq_ids
    serial_api.o(i.serial_irq_set) refers to cmsis_nvic.o(i.NVIC_SetVector) for NVIC_SetVector
    serial_api.o(i.serial_irq_set) refers to serial_api.o(i.uart0_irq) for uart0_irq
    serial_api.o(i.serial_irq_set) refers to serial_api.o(i.uart1_irq) for uart1_irq
    serial_api.o(i.serial_irq_set) refers to serial_api.o(i.uart2_irq) for uart2_irq
    serial_api.o(i.serial_irq_set) refers to serial_api.o(i.uart3_irq) for uart3_irq
    serial_api.o(i.serial_irq_set) refers to serial_api.o(i.uart4_irq) for uart4_irq
    serial_api.o(i.serial_pinout_tx) refers to pinmap_common.o(i.pinmap_pinout) for pinmap_pinout
    serial_api.o(i.serial_pinout_tx) refers to serial_api.o(.constdata) for PinMap_UART_TX
    serial_api.o(i.serial_putc) refers to serial_api.o(i.serial_writable) for serial_writable
    serial_api.o(i.uart0_irq) refers to serial_api.o(i.uart_irq) for uart_irq
    serial_api.o(i.uart1_irq) refers to serial_api.o(i.uart_irq) for uart_irq
    serial_api.o(i.uart2_irq) refers to serial_api.o(i.uart_irq) for uart_irq
    serial_api.o(i.uart3_irq) refers to serial_api.o(i.uart_irq) for uart_irq
    serial_api.o(i.uart4_irq) refers to serial_api.o(i.uart_irq) for uart_irq
    serial_api.o(i.uart_irq) refers to serial_api.o(.bss) for serial_irq_ids
    serial_api.o(i.uart_irq) refers to serial_api.o(.data) for irq_handler
    board.o(i.gpio_write) refers to assert.o(i.mbed_assert_internal) for mbed_assert_internal
    board.o(i.mbed_die) refers to gpio.o(i.gpio_init_out) for gpio_init_out
    board.o(i.mbed_die) refers to board.o(i.gpio_write) for gpio_write
    board.o(i.mbed_die) refers to wait_api.o(i.wait_ms) for wait_ms
    lcdcontroller.o(i._ZN13LcdController15getClockDivisorEi) refers to system_lpc407x_8x_177x_8x.o(.data) for SystemCoreClock
    lcdcontroller.o(i._ZN13LcdController4initEPNS_6ConfigE) refers to lcdcontroller.o(i._ZN13LcdController15getClockDivisorEi) for LcdController::getClockDivisor(int)
    lcdcontroller.o(i._ZN13LcdController4openEPNS_6ConfigE) refers to lcdcontroller.o(i._ZN13LcdController9pinConfigEv) for LcdController::pinConfig()
    lcdcontroller.o(i._ZN13LcdController4openEPNS_6ConfigE) refers to lcdcontroller.o(i._ZN13LcdController4initEPNS_6ConfigE) for LcdController::init(LcdController::Config*)
    lcdcontroller.o(i._ZN13LcdController4openEPNS_6ConfigE) refers to lcdcontroller.o(.data) for LcdController::_lcdControllerUsed
    lcdcontroller.o(i._ZN13LcdController5closeEv) refers to lcdcontroller.o(.data) for LcdController::_lcdControllerUsed
    lcdcontroller.o(.ARM.exidx) refers to lcdcontroller.o(i._ZN13LcdControllerC1Ev) for i._ZN13LcdControllerC1Ev
    lcdcontroller.o(.ARM.exidx) refers to lcdcontroller.o(i._ZN13LcdController15getClockDivisorEi) for i._ZN13LcdController15getClockDivisorEi
    lcdcontroller.o(.ARM.exidx) refers to lcdcontroller.o(i._ZN13LcdController4initEPNS_6ConfigE) for i._ZN13LcdController4initEPNS_6ConfigE
    lcdcontroller.o(.ARM.exidx) refers to lcdcontroller.o(i._ZN13LcdController9pinConfigEv) for i._ZN13LcdController9pinConfigEv
    lcdcontroller.o(.ARM.exidx) refers to lcdcontroller.o(i._ZN13LcdController4openEPNS_6ConfigE) for i._ZN13LcdController4openEPNS_6ConfigE
    lcdcontroller.o(.ARM.exidx) refers to lcdcontroller.o(i._ZN13LcdController5closeEv) for i._ZN13LcdController5closeEv
    lcdcontroller.o(.ARM.exidx) refers to lcdcontroller.o(i._ZN13LcdController14setFrameBufferEj) for i._ZN13LcdController14setFrameBufferEj
    lcdcontroller.o(.ARM.exidx) refers to lcdcontroller.o(i._ZN13LcdController8setPowerEb) for i._ZN13LcdController8setPowerEb
    malloc.o(.text) refers (Special) to hguard.o(.text) for __heap$guard
    malloc.o(.text) refers (Special) to init_alloc.o(.text) for _init_alloc
    malloc.o(.text) refers to rt_heap_descriptor.o(.text) for __rt_heap_descriptor
    malloc.o(.text) refers to heapstubs.o(.text) for __Heap_Alloc
    free.o(.text) refers (Special) to hguard.o(.text) for __heap$guard
    free.o(.text) refers to rt_heap_descriptor.o(.text) for __rt_heap_descriptor
    free.o(.text) refers to heapstubs.o(.text) for __Heap_Free
    h1_alloc.o(.text) refers (Special) to h1_init.o(.text) for __Heap_Initialize
    h1_alloc.o(.text) refers to rt_heap_descriptor.o(.text) for __rt_heap_descriptor
    h1_alloc.o(.text) refers to init_alloc.o(.text) for __Heap_Full
    h1_free.o(.text) refers to rt_heap_descriptor.o(.text) for __rt_heap_descriptor
    h1_alloc_mt.o(.text) refers (Special) to h1_init.o(.text) for __Heap_Initialize
    h1_alloc_mt.o(.text) refers to init_alloc.o(.text) for __Heap_Full
    h1_alloc_mt.o(.text) refers to rt_heap_descriptor.o(.text) for __rt_heap_descriptor
    h1_free_mt.o(.text) refers to rt_heap_descriptor.o(.text) for __rt_heap_descriptor
    heap2.o(i._FDIterate) refers to heap2.o(.conststring) for .conststring
    heap2.o(i.___Heap_ProvideMemory$realtime) refers to fdtree.o(i._FDTree_Delete) for _FDTree_Delete
    heap2.o(i.___Heap_ProvideMemory$realtime) refers to fdtree.o(i._FDTree_Insert) for _FDTree_Insert
    heap2.o(i.___Heap_Stats$realtime) refers to heap2.o(i._Heap2_StatsIterate) for _Heap2_StatsIterate
    heap2.o(i.___Heap_Valid$realtime) refers to heap2.o(i._FDIterate) for _FDIterate
    heap2.o(i.___Heap_Valid$realtime) refers to heap2.o(.conststring) for .conststring
    heap2.o(i._free$realtime) refers to rt_heap_descriptor.o(.text) for __rt_heap_descriptor
    heap2.o(i._free$realtime) refers to fdtree.o(i._FDTree_Delete) for _FDTree_Delete
    heap2.o(i._free$realtime) refers to fdtree.o(i._FDTree_Insert) for _FDTree_Insert
    heap2.o(i._malloc$realtime) refers to rt_heap_descriptor.o(.text) for __rt_heap_descriptor
    heap2.o(i._malloc$realtime) refers to fdtree.o(i._FDTree_FindFirst) for _FDTree_FindFirst
    heap2.o(i._malloc$realtime) refers to init_alloc.o(.text) for __Heap_Full
    heap2.o(i._malloc$realtime) refers to fdtree.o(i._FDTree_RemoveNode) for _FDTree_RemoveNode
    heap2.o(i._malloc$realtime) refers to fdtree.o(i._FDTree_Insert) for _FDTree_Insert
    heap2.o(i._posix_memalign$realtime) refers to rt_heap_descriptor.o(.text) for __rt_heap_descriptor
    heap2.o(i._posix_memalign$realtime) refers to fdtree.o(i._FDTree_FindFirst) for _FDTree_FindFirst
    heap2.o(i._posix_memalign$realtime) refers to init_alloc.o(.text) for __Heap_Full
    heap2.o(i._posix_memalign$realtime) refers to fdtree.o(i._FDTree_RemoveNode) for _FDTree_RemoveNode
    heap2.o(i._posix_memalign$realtime) refers to fdtree.o(i._FDTree_Insert) for _FDTree_Insert
    heap2.o(i._realloc$realtime) refers to rt_heap_descriptor.o(.text) for __rt_heap_descriptor
    heap2.o(i._realloc$realtime) refers to fdtree.o(i._FDTree_Insert) for _FDTree_Insert
    heap2.o(i._realloc$realtime) refers to h1_free.o(.text) for free
    heap2.o(i._realloc$realtime) refers to h1_alloc.o(.text) for malloc
    heap2.o(i._realloc$realtime) refers to fdtree.o(i._FDTree_Delete) for _FDTree_Delete
    heap2.o(i._realloc$realtime) refers to rt_memcpy_w.o(.text) for __aeabi_memcpy4
    heap2mt.o(i._FDIterate) refers to heap2mt.o(.conststring) for .conststring
    heap2mt.o(i.___Heap_Initialize$realtime$concurrent) refers to mutex_dummy.o(.text) for _mutex_initialize
    heap2mt.o(i.___Heap_ProvideMemory$realtime$concurrent) refers to fdtree.o(i._FDTree_Delete) for _FDTree_Delete
    heap2mt.o(i.___Heap_ProvideMemory$realtime$concurrent) refers to fdtree.o(i._FDTree_Insert) for _FDTree_Insert
    heap2mt.o(i.___Heap_Stats$realtime$concurrent) refers to heap2mt.o(i._Heap2_StatsIterate) for _Heap2_StatsIterate
    heap2mt.o(i.___Heap_Valid$realtime$concurrent) refers to heap2mt.o(i._FDIterate) for _FDIterate
    heap2mt.o(i.___Heap_Valid$realtime$concurrent) refers to heap2mt.o(.conststring) for .conststring
    heap2mt.o(i._free$realtime$concurrent) refers to rt_heap_descriptor.o(.text) for __rt_heap_descriptor
    heap2mt.o(i._free$realtime$concurrent) refers to fdtree.o(i._FDTree_Delete) for _FDTree_Delete
    heap2mt.o(i._free$realtime$concurrent) refers to fdtree.o(i._FDTree_Insert) for _FDTree_Insert
    heap2mt.o(i._malloc$realtime$concurrent) refers to rt_heap_descriptor.o(.text) for __rt_heap_descriptor
    heap2mt.o(i._malloc$realtime$concurrent) refers to fdtree.o(i._FDTree_FindFirst) for _FDTree_FindFirst
    heap2mt.o(i._malloc$realtime$concurrent) refers to init_alloc.o(.text) for __Heap_Full
    heap2mt.o(i._malloc$realtime$concurrent) refers to fdtree.o(i._FDTree_RemoveNode) for _FDTree_RemoveNode
    heap2mt.o(i._malloc$realtime$concurrent) refers to fdtree.o(i._FDTree_Insert) for _FDTree_Insert
    heap2mt.o(i._posix_memalign$realtime$concurrent) refers to rt_heap_descriptor.o(.text) for __rt_heap_descriptor
    heap2mt.o(i._posix_memalign$realtime$concurrent) refers to fdtree.o(i._FDTree_FindFirst) for _FDTree_FindFirst
    heap2mt.o(i._posix_memalign$realtime$concurrent) refers to init_alloc.o(.text) for __Heap_Full
    heap2mt.o(i._posix_memalign$realtime$concurrent) refers to fdtree.o(i._FDTree_RemoveNode) for _FDTree_RemoveNode
    heap2mt.o(i._posix_memalign$realtime$concurrent) refers to fdtree.o(i._FDTree_Insert) for _FDTree_Insert
    heap2mt.o(i._realloc$realtime$concurrent) refers to rt_heap_descriptor.o(.text) for __rt_heap_descriptor
    heap2mt.o(i._realloc$realtime$concurrent) refers to fdtree.o(i._FDTree_Insert) for _FDTree_Insert
    heap2mt.o(i._realloc$realtime$concurrent) refers to h1_free.o(.text) for free
    heap2mt.o(i._realloc$realtime$concurrent) refers to h1_alloc.o(.text) for malloc
    heap2mt.o(i._realloc$realtime$concurrent) refers to fdtree.o(i._FDTree_Delete) for _FDTree_Delete
    heap2mt.o(i._realloc$realtime$concurrent) refers to rt_memcpy_w.o(.text) for __aeabi_memcpy4
    vfprintf.o(.text) refers (Special) to _printf_a.o(.ARM.Collect$$_printf_percent$$00000006) for _printf_a
    vfprintf.o(.text) refers (Special) to _printf_c.o(.ARM.Collect$$_printf_percent$$00000013) for _printf_c
    vfprintf.o(.text) refers (Special) to _printf_charcount.o(.text) for _printf_charcount
    vfprintf.o(.text) refers (Special) to _printf_d.o(.ARM.Collect$$_printf_percent$$00000009) for _printf_d
    vfprintf.o(.text) refers (Special) to _printf_e.o(.ARM.Collect$$_printf_percent$$00000004) for _printf_e
    vfprintf.o(.text) refers (Special) to _printf_f.o(.ARM.Collect$$_printf_percent$$00000003) for _printf_f
    vfprintf.o(.text) refers (Special) to printf1.o(x$fpl$printf1) for _printf_fp_dec
    vfprintf.o(.text) refers (Special) to printf2.o(x$fpl$printf2) for _printf_fp_hex
    vfprintf.o(.text) refers (Special) to _printf_g.o(.ARM.Collect$$_printf_percent$$00000005) for _printf_g
    vfprintf.o(.text) refers (Special) to _printf_i.o(.ARM.Collect$$_printf_percent$$00000008) for _printf_i
    vfprintf.o(.text) refers (Special) to _printf_dec.o(.text) for _printf_int_dec
    vfprintf.o(.text) refers (Special) to _printf_l.o(.ARM.Collect$$_printf_percent$$00000012) for _printf_l
    vfprintf.o(.text) refers (Special) to _printf_lc.o(.ARM.Collect$$_printf_percent$$00000015) for _printf_lc
    vfprintf.o(.text) refers (Special) to _printf_ll.o(.ARM.Collect$$_printf_percent$$00000007) for _printf_ll
    vfprintf.o(.text) refers (Special) to _printf_lld.o(.ARM.Collect$$_printf_percent$$0000000E) for _printf_lld
    vfprintf.o(.text) refers (Special) to _printf_lli.o(.ARM.Collect$$_printf_percent$$0000000D) for _printf_lli
    vfprintf.o(.text) refers (Special) to _printf_llo.o(.ARM.Collect$$_printf_percent$$00000010) for _printf_llo
    vfprintf.o(.text) refers (Special) to _printf_llu.o(.ARM.Collect$$_printf_percent$$0000000F) for _printf_llu
    vfprintf.o(.text) refers (Special) to _printf_llx.o(.ARM.Collect$$_printf_percent$$00000011) for _printf_llx
    vfprintf.o(.text) refers (Special) to _printf_longlong_dec.o(.text) for _printf_longlong_dec
    vfprintf.o(.text) refers (Special) to _printf_hex_int_ll_ptr.o(.text) for _printf_longlong_hex
    vfprintf.o(.text) refers (Special) to _printf_oct_int_ll.o(.text) for _printf_longlong_oct
    vfprintf.o(.text) refers (Special) to _printf_ls.o(.ARM.Collect$$_printf_percent$$00000016) for _printf_ls
    vfprintf.o(.text) refers (Special) to _printf_n.o(.ARM.Collect$$_printf_percent$$00000001) for _printf_n
    vfprintf.o(.text) refers (Special) to _printf_o.o(.ARM.Collect$$_printf_percent$$0000000B) for _printf_o
    vfprintf.o(.text) refers (Special) to _printf_p.o(.ARM.Collect$$_printf_percent$$00000002) for _printf_p
    vfprintf.o(.text) refers (Special) to _printf_percent.o(.ARM.Collect$$_printf_percent$$00000000) for _printf_percent
    vfprintf.o(.text) refers (Special) to _printf_pad.o(.text) for _printf_post_padding
    vfprintf.o(.text) refers (Special) to _printf_s.o(.ARM.Collect$$_printf_percent$$00000014) for _printf_s
    vfprintf.o(.text) refers (Special) to _printf_str.o(.text) for _printf_str
    vfprintf.o(.text) refers (Special) to _printf_truncate.o(.text) for _printf_truncate_signed
    vfprintf.o(.text) refers (Special) to _printf_u.o(.ARM.Collect$$_printf_percent$$0000000A) for _printf_u
    vfprintf.o(.text) refers (Special) to _printf_wctomb.o(.text) for _printf_wctomb
    vfprintf.o(.text) refers (Special) to _printf_x.o(.ARM.Collect$$_printf_percent$$0000000C) for _printf_x
    vfprintf.o(.text) refers to _printf_char_file.o(.text) for _printf_char_file
    c89vfprintf.o(.text) refers (Special) to _printf_a.o(.ARM.Collect$$_printf_percent$$00000006) for _printf_a
    c89vfprintf.o(.text) refers (Special) to _printf_c.o(.ARM.Collect$$_printf_percent$$00000013) for _printf_c
    c89vfprintf.o(.text) refers (Special) to _printf_charcount.o(.text) for _printf_charcount
    c89vfprintf.o(.text) refers (Special) to _printf_d.o(.ARM.Collect$$_printf_percent$$00000009) for _printf_d
    c89vfprintf.o(.text) refers (Special) to _printf_e.o(.ARM.Collect$$_printf_percent$$00000004) for _printf_e
    c89vfprintf.o(.text) refers (Special) to _printf_f.o(.ARM.Collect$$_printf_percent$$00000003) for _printf_f
    c89vfprintf.o(.text) refers (Special) to printf1.o(x$fpl$printf1) for _printf_fp_dec
    c89vfprintf.o(.text) refers (Special) to _printf_g.o(.ARM.Collect$$_printf_percent$$00000005) for _printf_g
    c89vfprintf.o(.text) refers (Special) to _printf_i.o(.ARM.Collect$$_printf_percent$$00000008) for _printf_i
    c89vfprintf.o(.text) refers (Special) to _printf_dec.o(.text) for _printf_int_dec
    c89vfprintf.o(.text) refers (Special) to _printf_l.o(.ARM.Collect$$_printf_percent$$00000012) for _printf_l
    c89vfprintf.o(.text) refers (Special) to _printf_lc.o(.ARM.Collect$$_printf_percent$$00000015) for _printf_lc
    c89vfprintf.o(.text) refers (Special) to _printf_ll.o(.ARM.Collect$$_printf_percent$$00000007) for _printf_ll
    c89vfprintf.o(.text) refers (Special) to _printf_lld.o(.ARM.Collect$$_printf_percent$$0000000E) for _printf_lld
    c89vfprintf.o(.text) refers (Special) to _printf_lli.o(.ARM.Collect$$_printf_percent$$0000000D) for _printf_lli
    c89vfprintf.o(.text) refers (Special) to _printf_llo.o(.ARM.Collect$$_printf_percent$$00000010) for _printf_llo
    c89vfprintf.o(.text) refers (Special) to _printf_llu.o(.ARM.Collect$$_printf_percent$$0000000F) for _printf_llu
    c89vfprintf.o(.text) refers (Special) to _printf_llx.o(.ARM.Collect$$_printf_percent$$00000011) for _printf_llx
    c89vfprintf.o(.text) refers (Special) to _printf_longlong_dec.o(.text) for _printf_longlong_dec
    c89vfprintf.o(.text) refers (Special) to _printf_hex_int_ll_ptr.o(.text) for _printf_longlong_hex
    c89vfprintf.o(.text) refers (Special) to _printf_oct_int_ll.o(.text) for _printf_longlong_oct
    c89vfprintf.o(.text) refers (Special) to _printf_ls.o(.ARM.Collect$$_printf_percent$$00000016) for _printf_ls
    c89vfprintf.o(.text) refers (Special) to _printf_n.o(.ARM.Collect$$_printf_percent$$00000001) for _printf_n
    c89vfprintf.o(.text) refers (Special) to _printf_o.o(.ARM.Collect$$_printf_percent$$0000000B) for _printf_o
    c89vfprintf.o(.text) refers (Special) to _printf_p.o(.ARM.Collect$$_printf_percent$$00000002) for _printf_p
    c89vfprintf.o(.text) refers (Special) to _printf_percent.o(.ARM.Collect$$_printf_percent$$00000000) for _printf_percent
    c89vfprintf.o(.text) refers (Special) to _printf_pad.o(.text) for _printf_post_padding
    c89vfprintf.o(.text) refers (Special) to _printf_s.o(.ARM.Collect$$_printf_percent$$00000014) for _printf_s
    c89vfprintf.o(.text) refers (Special) to _printf_str.o(.text) for _printf_str
    c89vfprintf.o(.text) refers (Special) to _printf_truncate.o(.text) for _printf_truncate_signed
    c89vfprintf.o(.text) refers (Special) to _printf_u.o(.ARM.Collect$$_printf_percent$$0000000A) for _printf_u
    c89vfprintf.o(.text) refers (Special) to _printf_wctomb.o(.text) for _printf_wctomb
    c89vfprintf.o(.text) refers (Special) to _printf_x.o(.ARM.Collect$$_printf_percent$$0000000C) for _printf_x
    c89vfprintf.o(.text) refers to _printf_char_file.o(.text) for _printf_char_file
    __2sprintf.o(.text) refers to _printf_char_common.o(.text) for _printf_char_common
    __2sprintf.o(.text) refers to _sputc.o(.text) for _sputc
    noretval__2sprintf.o(.text) refers to _printf_char_common.o(.text) for _printf_char_common
    noretval__2sprintf.o(.text) refers to _sputc.o(.text) for _sputc
    __printf.o(.text) refers to _printf_percent.o(.ARM.Collect$$_printf_percent$$00000000) for _printf_percent
    _printf_hex_ll.o(.text) refers to _printf_intcommon.o(.text) for _printf_int_common
    _printf_hex_ll.o(.text) refers to _printf_hex_ll.o(.constdata) for .constdata
    _printf_hex_int.o(.text) refers (Weak) to _printf_truncate.o(.text) for _printf_truncate_unsigned
    _printf_hex_int.o(.text) refers to _printf_intcommon.o(.text) for _printf_int_common
    _printf_hex_int.o(.text) refers to _printf_hex_int.o(.constdata) for .constdata
    _printf_hex_int_ll.o(.text) refers to _printf_intcommon.o(.text) for _printf_int_common
    _printf_hex_int_ll.o(.text) refers (Weak) to _printf_truncate.o(.text) for _printf_truncate_unsigned
    _printf_hex_int_ll.o(.text) refers to _printf_hex_int_ll.o(.constdata) for .constdata
    _printf_hex_ptr.o(.text) refers to _printf_intcommon.o(.text) for _printf_int_common
    _printf_hex_ptr.o(.text) refers to _printf_hex_ptr.o(.constdata) for .constdata
    _printf_hex_int_ptr.o(.text) refers to _printf_intcommon.o(.text) for _printf_int_common
    _printf_hex_int_ptr.o(.text) refers (Weak) to _printf_truncate.o(.text) for _printf_truncate_unsigned
    _printf_hex_int_ptr.o(.text) refers to _printf_hex_int_ptr.o(.constdata) for .constdata
    _printf_hex_ll_ptr.o(.text) refers to _printf_intcommon.o(.text) for _printf_int_common
    _printf_hex_ll_ptr.o(.text) refers to _printf_hex_ll_ptr.o(.constdata) for .constdata
    _printf_hex_int_ll_ptr.o(.text) refers to _printf_intcommon.o(.text) for _printf_int_common
    _printf_hex_int_ll_ptr.o(.text) refers (Weak) to _printf_truncate.o(.text) for _printf_truncate_unsigned
    _printf_hex_int_ll_ptr.o(.text) refers to _printf_hex_int_ll_ptr.o(.constdata) for .constdata
    __printf_flags.o(.text) refers to _printf_percent.o(.ARM.Collect$$_printf_percent$$00000000) for _printf_percent
    __printf_flags.o(.text) refers to __printf_flags.o(.constdata) for .constdata
    __printf_ss.o(.text) refers to _printf_percent.o(.ARM.Collect$$_printf_percent$$00000000) for _printf_percent
    __printf_flags_ss.o(.text) refers to _printf_percent.o(.ARM.Collect$$_printf_percent$$00000000) for _printf_percent
    __printf_flags_ss.o(.text) refers to __printf_flags_ss.o(.constdata) for .constdata
    __printf_wp.o(.text) refers to __printf_wp.o(i._is_digit) for _is_digit
    __printf_wp.o(.text) refers to _printf_percent.o(.ARM.Collect$$_printf_percent$$00000000) for _printf_percent
    __printf_flags_wp.o(.text) refers to __printf_wp.o(i._is_digit) for _is_digit
    __printf_flags_wp.o(.text) refers to _printf_percent.o(.ARM.Collect$$_printf_percent$$00000000) for _printf_percent
    __printf_flags_wp.o(.text) refers to __printf_flags_wp.o(.constdata) for .constdata
    __printf_ss_wp.o(.text) refers to __printf_wp.o(i._is_digit) for _is_digit
    __printf_ss_wp.o(.text) refers to _printf_percent.o(.ARM.Collect$$_printf_percent$$00000000) for _printf_percent
    __printf_flags_ss_wp.o(.text) refers to __printf_wp.o(i._is_digit) for _is_digit
    __printf_flags_ss_wp.o(.text) refers to _printf_percent.o(.ARM.Collect$$_printf_percent$$00000000) for _printf_percent
    __printf_flags_ss_wp.o(.text) refers to __printf_flags_ss_wp.o(.constdata) for .constdata
    _printf_p.o(.ARM.Collect$$_printf_percent$$00000002) refers (Weak) to _printf_hex_int_ll_ptr.o(.text) for _printf_hex_ptr
    _printf_percent.o(.ARM.Collect$$_printf_percent$$00000000) refers (Special) to _printf_percent_end.o(.ARM.Collect$$_printf_percent$$00000017) for _printf_percent_end
    vfscanf.o(.text) refers (Special) to _scanf_int.o(.text) for _scanf_int
    vfscanf.o(.text) refers (Special) to _scanf_longlong.o(.text) for _scanf_longlong
    vfscanf.o(.text) refers (Special) to _scanf_mbtowc.o(.text) for _scanf_mbtowc
    vfscanf.o(.text) refers (Special) to scanf1.o(x$fpl$scanf1) for _scanf_real
    vfscanf.o(.text) refers (Special) to _scanf_str.o(.text) for _scanf_string
    vfscanf.o(.text) refers (Special) to _scanf_wctomb.o(.text) for _scanf_wctomb
    vfscanf.o(.text) refers (Special) to _scanf_wstr.o(.text) for _scanf_wstring
    vfscanf.o(.text) refers to scanf_char_file.o(.text) for __vfscanf_char_file
    __0sscanf.o(.text) refers to scanf_char.o(.text) for __vfscanf_char
    __0sscanf.o(.text) refers to _sgetc.o(.text) for _sgetc
    _scanf_int.o(.text) refers to _chval.o(.text) for _chval
    fflush.o(.text) refers to stdio.o(.text) for _fflush
    fflush.o(.text) refers to fseek.o(.text) for _fseek
    fflush.o(.text) refers to stdio_streams.o(.bss) for __stdin
    fgetc.o(i.fgetc) refers to filbuf.o(.text) for __filbuf_byte
    fgets.o(.text) refers to fgetc.o(i.fgetc) for fgetc
    fgets.o(.text) refers to ferror.o(.text) for ferror
    fputc.o(i.fputc) refers to flsbuf.o(.text) for __flsbuf_byte
    fputs.o(.text) refers to fputc.o(i.fputc) for fputc
    fopen.o(.text) refers to fclose.o(.text) for _fclose_internal
    fopen.o(.text) refers to retarget.o(i._sys_open) for _sys_open
    fopen.o(.text) refers to fseek.o(.text) for _fseek
    fopen.o(.text) refers to h1_alloc.o(.text) for malloc
    fopen.o(.text) refers to rt_memclr_w.o(.text) for __aeabi_memclr4
    fopen.o(.text) refers to stdio_streams.o(.bss) for __stdin
    setbuf.o(.text) refers to setvbuf.o(.text) for setvbuf
    stdio_streams.o(.bss) refers (Special) to initio.o(.text) for _initio
    stdio_streams.o(.bss) refers (Special) to initio.o(.text) for _initio
    stdio_streams.o(.bss) refers (Special) to initio.o(.text) for _initio
    stdio_streams.o(.data) refers (Special) to initio.o(.text) for _initio
    stdio_streams.o(.data) refers (Special) to initio.o(.text) for _initio
    stdio_streams.o(.data) refers (Special) to initio.o(.text) for _initio
    fclose.o(.text) refers to stdio.o(.text) for _fflush
    fclose.o(.text) refers to retarget.o(i._sys_close) for _sys_close
    fclose.o(.text) refers to h1_free.o(.text) for free
    fclose.o(.text) refers to rt_memclr_w.o(.text) for __aeabi_memclr4
    fclose_locked.o(.text) refers to fclose.o(.text) for _fclose_internal
    fclose_locked.o(.text) refers to streamlock.o(.data) for _stream_list_lock
    fflush_locked.o(.text) refers to stdio.o(.text) for _fflush
    fflush_locked.o(.text) refers to fseek.o(.text) for _fseek
    fflush_locked.o(.text) refers to fflush.o(.text) for _do_fflush
    fflush_locked.o(.text) refers to streamlock.o(.data) for _stream_list_lock
    fflush_locked.o(.text) refers to stdio_streams.o(.bss) for __stdin
    fopen_locked.o(.text) refers to fclose.o(.text) for _fclose_internal
    fopen_locked.o(.text) refers to retarget.o(i._sys_open) for _sys_open
    fopen_locked.o(.text) refers to fseek.o(.text) for _fseek
    fopen_locked.o(.text) refers to h1_alloc.o(.text) for malloc
    fopen_locked.o(.text) refers to rt_memclr_w.o(.text) for __aeabi_memclr4
    fopen_locked.o(.text) refers to streamlock.o(.data) for _stream_list_lock
    fopen_locked.o(.text) refers to stdio_streams.o(.bss) for __stdin
    atexit_aeabi.o(.text) refers to aeabi_atexit.o(.text) for __aeabi_atexit
    atexit_aeabi.o(.ARM.exidx) refers to atexit_aeabi.o(.text) for .text
    aeabi_atexit.o(.text) refers (Special) to cxa_finalize.o(.text) for __cxa_finalize
    aeabi_atexit.o(.text) refers to h1_alloc.o(.text) for malloc
    aeabi_atexit.o(.text) refers to rt_ddtor_pointer_addr.o(.text) for __rt_ddtor_pointer_addr
    aeabi_atexit.o(.ARM.exidx) refers (Special) to cxa_finalize.o(.text) for __cxa_finalize
    aeabi_atexit.o(.ARM.exidx) refers to aeabi_atexit.o(.text) for .text
    rt_memcpy_v6.o(.text) refers to rt_memcpy_w.o(.text) for __aeabi_memcpy4
    rt_memclr.o(.text) refers to rt_memclr_w.o(.text) for _memset_w
    strncpy.o(.text) refers to rt_memclr.o(.text) for __aeabi_memclr
    localtime.o(.text) refers to localtime_internal.o(.text) for _localtime_r
    localtime.o(.text) refers to localtime.o(.bss) for .bss
    mktime.o(.text) refers to _monlen.o(.constdata) for _monlen
    __main.o(!!!main) refers to __rtentry.o(.ARM.Collect$$rtentry$$00000000) for __rt_entry
    init_aeabi.o(.emb_text) refers (Special) to libinit2.o(.ARM.Collect$$libinit$$00000031) for __rt_lib_init_cpp_2
    init_aeabi.o(.init_array) refers (Special) to libinit2.o(.ARM.Collect$$libinit$$00000031) for __rt_lib_init_cpp_2
    init_aeabi.o(.init_array) refers to init_aeabi.o(.text) for __cpp_initialize__aeabi_
    init_aeabi.o(.dummy_text) refers (Special) to libinit2.o(.ARM.Collect$$libinit$$00000031) for __rt_lib_init_cpp_2
    init_aeabi.o(.text) refers (Special) to libinit2.o(.ARM.Collect$$libinit$$00000031) for __rt_lib_init_cpp_2
    init_aeabi.o(.ARM.exidx) refers (Special) to libinit2.o(.ARM.Collect$$libinit$$00000031) for __rt_lib_init_cpp_2
    init_aeabi.o(.ARM.exidx) refers to init_aeabi.o(.text) for .text
    delete.o(i._ZdlPv) refers to h1_free.o(.text) for free
    delete.o(.ARM.exidx) refers to delete.o(i._ZdlPv) for i._ZdlPv
    new.o(i._Znwj) refers to rt_new_handler_addr.o(.text) for __rt_new_handler_addr
    new.o(i._Znwj) refers to h1_alloc.o(.text) for malloc
    new.o(i._Znwj) refers to arm_newhandler_noexceptions.o(.text) for __default_new_handler()
    new.o(.ARM.exidx) refers to new.o(i._Znwj) for i._Znwj
    new.o(.ARM.exidx) refers to unwind_pr0.o(.text) for __aeabi_unwind_cpp_pr0
    new.o(.ARM.exidx) refers to new.o(.ARM.extab) for .extab._Znwj
    new.o(.ARM.extab) refers to arm_callunex_noexceptions.o(.text) for __cxa_call_unexpected
    new.o(.ARM.extab) refers to bad_alloc_dtor.o(.constdata__ZTISt9bad_alloc) for typeinfo for std::bad_alloc
    pure_virt.o(i.__cxa_pure_virtual) refers to defsig_pvfn_outer.o(.text) for __rt_SIGPVFN
    pure_virt.o(.ARM.exidx) refers to pure_virt.o(i.__cxa_pure_virtual) for i.__cxa_pure_virtual
    cxa_guard_acquire.o(.ARM.exidx) refers to cxa_guard_acquire.o(i.__cxa_guard_acquire) for i.__cxa_guard_acquire
    cxa_guard_release.o(.ARM.exidx) refers to cxa_guard_release.o(i.__cxa_guard_release) for i.__cxa_guard_release
    lib_rtti_impl.o(i._ZN10__cxxabiv116__enum_type_infoD0Ev) refers to lib_rtti_impl.o(i._ZN10__cxxabiv116__enum_type_infoD1Ev) for __cxxabiv1::__enum_type_info::~__enum_type_info()
    lib_rtti_impl.o(i._ZN10__cxxabiv117__array_type_infoD0Ev) refers to lib_rtti_impl.o(i._ZN10__cxxabiv117__array_type_infoD1Ev) for __cxxabiv1::__array_type_info::~__array_type_info()
    lib_rtti_impl.o(i._ZN10__cxxabiv117__class_type_infoD0Ev) refers to lib_rtti_impl.o(i._ZN10__cxxabiv117__class_type_infoD1Ev) for __cxxabiv1::__class_type_info::~__class_type_info()
    lib_rtti_impl.o(i._ZN10__cxxabiv117__pbase_type_infoD0Ev) refers to lib_rtti_impl.o(i._ZN10__cxxabiv117__pbase_type_infoD1Ev) for __cxxabiv1::__pbase_type_info::~__pbase_type_info()
    lib_rtti_impl.o(i._ZN10__cxxabiv119__pointer_type_infoD0Ev) refers to lib_rtti_impl.o(i._ZN10__cxxabiv119__pointer_type_infoD1Ev) for __cxxabiv1::__pointer_type_info::~__pointer_type_info()
    lib_rtti_impl.o(i._ZN10__cxxabiv119__pointer_type_infoD1Ev) refers to lib_rtti_impl.o(i._ZN10__cxxabiv117__pbase_type_infoD1Ev) for __cxxabiv1::__pbase_type_info::~__pbase_type_info()
    lib_rtti_impl.o(i._ZN10__cxxabiv120__function_type_infoD0Ev) refers to lib_rtti_impl.o(i._ZN10__cxxabiv120__function_type_infoD1Ev) for __cxxabiv1::__function_type_info::~__function_type_info()
    lib_rtti_impl.o(i._ZN10__cxxabiv120__si_class_type_infoD0Ev) refers to lib_rtti_impl.o(i._ZN10__cxxabiv120__si_class_type_infoD1Ev) for __cxxabiv1::__si_class_type_info::~__si_class_type_info()
    lib_rtti_impl.o(i._ZN10__cxxabiv120__si_class_type_infoD1Ev) refers to lib_rtti_impl.o(i._ZN10__cxxabiv117__class_type_infoD1Ev) for __cxxabiv1::__class_type_info::~__class_type_info()
    lib_rtti_impl.o(i._ZN10__cxxabiv121__vmi_class_type_infoD0Ev) refers to lib_rtti_impl.o(i._ZN10__cxxabiv121__vmi_class_type_infoD1Ev) for __cxxabiv1::__vmi_class_type_info::~__vmi_class_type_info()
    lib_rtti_impl.o(i._ZN10__cxxabiv121__vmi_class_type_infoD1Ev) refers to lib_rtti_impl.o(i._ZN10__cxxabiv117__class_type_infoD1Ev) for __cxxabiv1::__class_type_info::~__class_type_info()
    lib_rtti_impl.o(i._ZN10__cxxabiv123__fundamental_type_infoD0Ev) refers to lib_rtti_impl.o(i._ZN10__cxxabiv123__fundamental_type_infoD1Ev) for __cxxabiv1::__fundamental_type_info::~__fundamental_type_info()
    lib_rtti_impl.o(i._ZN10__cxxabiv129__pointer_to_member_type_infoD0Ev) refers to lib_rtti_impl.o(i._ZN10__cxxabiv129__pointer_to_member_type_infoD1Ev) for __cxxabiv1::__pointer_to_member_type_info::~__pointer_to_member_type_info()
    lib_rtti_impl.o(i._ZN10__cxxabiv129__pointer_to_member_type_infoD1Ev) refers to lib_rtti_impl.o(i._ZN10__cxxabiv117__pbase_type_infoD1Ev) for __cxxabiv1::__pbase_type_info::~__pbase_type_info()
    lib_rtti_impl.o(.ARM.exidx) refers to lib_rtti_impl.o(i._ZN10__cxxabiv123__fundamental_type_infoD1Ev) for i._ZN10__cxxabiv123__fundamental_type_infoD1Ev
    lib_rtti_impl.o(.ARM.exidx) refers to lib_rtti_impl.o(i._ZN10__cxxabiv123__fundamental_type_infoD0Ev) for i._ZN10__cxxabiv123__fundamental_type_infoD0Ev
    lib_rtti_impl.o(.ARM.exidx) refers to lib_rtti_impl.o(i._ZN10__cxxabiv117__array_type_infoD1Ev) for i._ZN10__cxxabiv117__array_type_infoD1Ev
    lib_rtti_impl.o(.ARM.exidx) refers to lib_rtti_impl.o(i._ZN10__cxxabiv117__array_type_infoD0Ev) for i._ZN10__cxxabiv117__array_type_infoD0Ev
    lib_rtti_impl.o(.ARM.exidx) refers to lib_rtti_impl.o(i._ZN10__cxxabiv120__function_type_infoD1Ev) for i._ZN10__cxxabiv120__function_type_infoD1Ev
    lib_rtti_impl.o(.ARM.exidx) refers to lib_rtti_impl.o(i._ZN10__cxxabiv120__function_type_infoD0Ev) for i._ZN10__cxxabiv120__function_type_infoD0Ev
    lib_rtti_impl.o(.ARM.exidx) refers to lib_rtti_impl.o(i._ZN10__cxxabiv116__enum_type_infoD1Ev) for i._ZN10__cxxabiv116__enum_type_infoD1Ev
    lib_rtti_impl.o(.ARM.exidx) refers to lib_rtti_impl.o(i._ZN10__cxxabiv116__enum_type_infoD0Ev) for i._ZN10__cxxabiv116__enum_type_infoD0Ev
    lib_rtti_impl.o(.ARM.exidx) refers to lib_rtti_impl.o(i._ZN10__cxxabiv117__class_type_infoD1Ev) for i._ZN10__cxxabiv117__class_type_infoD1Ev
    lib_rtti_impl.o(.ARM.exidx) refers to lib_rtti_impl.o(i._ZN10__cxxabiv117__class_type_infoD0Ev) for i._ZN10__cxxabiv117__class_type_infoD0Ev
    lib_rtti_impl.o(.ARM.exidx) refers to lib_rtti_impl.o(i._ZN10__cxxabiv120__si_class_type_infoD1Ev) for i._ZN10__cxxabiv120__si_class_type_infoD1Ev
    lib_rtti_impl.o(.ARM.exidx) refers to lib_rtti_impl.o(i._ZN10__cxxabiv120__si_class_type_infoD0Ev) for i._ZN10__cxxabiv120__si_class_type_infoD0Ev
    lib_rtti_impl.o(.ARM.exidx) refers to lib_rtti_impl.o(i._ZN10__cxxabiv121__vmi_class_type_infoD1Ev) for i._ZN10__cxxabiv121__vmi_class_type_infoD1Ev
    lib_rtti_impl.o(.ARM.exidx) refers to lib_rtti_impl.o(i._ZN10__cxxabiv121__vmi_class_type_infoD0Ev) for i._ZN10__cxxabiv121__vmi_class_type_infoD0Ev
    lib_rtti_impl.o(.ARM.exidx) refers to lib_rtti_impl.o(i._ZN10__cxxabiv117__pbase_type_infoD1Ev) for i._ZN10__cxxabiv117__pbase_type_infoD1Ev
    lib_rtti_impl.o(.ARM.exidx) refers to lib_rtti_impl.o(i._ZN10__cxxabiv117__pbase_type_infoD0Ev) for i._ZN10__cxxabiv117__pbase_type_infoD0Ev
    lib_rtti_impl.o(.ARM.exidx) refers to lib_rtti_impl.o(i._ZN10__cxxabiv119__pointer_type_infoD1Ev) for i._ZN10__cxxabiv119__pointer_type_infoD1Ev
    lib_rtti_impl.o(.ARM.exidx) refers to lib_rtti_impl.o(i._ZN10__cxxabiv119__pointer_type_infoD0Ev) for i._ZN10__cxxabiv119__pointer_type_infoD0Ev
    lib_rtti_impl.o(.ARM.exidx) refers to lib_rtti_impl.o(i._ZN10__cxxabiv129__pointer_to_member_type_infoD1Ev) for i._ZN10__cxxabiv129__pointer_to_member_type_infoD1Ev
    lib_rtti_impl.o(.ARM.exidx) refers to lib_rtti_impl.o(i._ZN10__cxxabiv129__pointer_to_member_type_infoD0Ev) for i._ZN10__cxxabiv129__pointer_to_member_type_infoD0Ev
    aeabi_vec_ctor_nocookie_nodtor.o(.ARM.exidx) refers to aeabi_vec_ctor_nocookie_nodtor.o(i.__aeabi_vec_ctor_nocookie_nodtor) for i.__aeabi_vec_ctor_nocookie_nodtor
    aeabi_vec_ctor_nocookie_nodtor.o(.ARM.exidx) refers to unwind_pr0.o(.text) for __aeabi_unwind_cpp_pr0
    d2f.o(x$fpl$d2f) refers (Special) to usenofp.o(x$fpl$usenofp) for __I$use$fp
    d2f.o(x$fpl$d2f) refers to fretinf.o(x$fpl$fretinf) for __fpl_fretinf
    d2f.o(x$fpl$d2f) refers to dnaninf.o(x$fpl$dnaninf) for __fpl_dnaninf
    daddsub_clz.o(x$fpl$dadd) refers (Special) to usenofp.o(x$fpl$usenofp) for __I$use$fp
    daddsub_clz.o(x$fpl$dadd) refers to daddsub_clz.o(x$fpl$dsub) for _dsub1
    daddsub_clz.o(x$fpl$dadd) refers to dretinf.o(x$fpl$dretinf) for __fpl_dretinf
    daddsub_clz.o(x$fpl$dadd) refers to dnaninf.o(x$fpl$dnaninf) for __fpl_dnaninf
    daddsub_clz.o(x$fpl$drsb) refers (Special) to usenofp.o(x$fpl$usenofp) for __I$use$fp
    daddsub_clz.o(x$fpl$drsb) refers to daddsub_clz.o(x$fpl$dadd) for _dadd1
    daddsub_clz.o(x$fpl$drsb) refers to daddsub_clz.o(x$fpl$dsub) for _dsub1
    daddsub_clz.o(x$fpl$dsub) refers (Special) to usenofp.o(x$fpl$usenofp) for __I$use$fp
    daddsub_clz.o(x$fpl$dsub) refers to daddsub_clz.o(x$fpl$dadd) for _dadd1
    daddsub_clz.o(x$fpl$dsub) refers to dnaninf.o(x$fpl$dnaninf) for __fpl_dnaninf
    ddiv.o(x$fpl$drdiv) refers (Special) to usenofp.o(x$fpl$usenofp) for __I$use$fp
    ddiv.o(x$fpl$drdiv) refers to ddiv.o(x$fpl$ddiv) for ddiv_entry
    ddiv.o(x$fpl$ddiv) refers (Special) to usenofp.o(x$fpl$usenofp) for __I$use$fp
    ddiv.o(x$fpl$ddiv) refers to dretinf.o(x$fpl$dretinf) for __fpl_dretinf
    ddiv.o(x$fpl$ddiv) refers to dnaninf.o(x$fpl$dnaninf) for __fpl_dnaninf
    deqf.o(x$fpl$deqf) refers (Special) to usenofp.o(x$fpl$usenofp) for __I$use$fp
    deqf.o(x$fpl$deqf) refers to dnaninf.o(x$fpl$dnaninf) for __fpl_dnaninf
    deqf.o(x$fpl$deqf) refers to dcmpi.o(x$fpl$dcmpinf) for __fpl_dcmp_Inf
    dflt_clz.o(x$fpl$dfltu) refers (Special) to usenofp.o(x$fpl$usenofp) for __I$use$fp
    dflt_clz.o(x$fpl$dflt) refers (Special) to usenofp.o(x$fpl$usenofp) for __I$use$fp
    dflt_clz.o(x$fpl$dfltn) refers (Special) to usenofp.o(x$fpl$usenofp) for __I$use$fp
    dleqf.o(x$fpl$dleqf) refers (Special) to usenofp.o(x$fpl$usenofp) for __I$use$fp
    dleqf.o(x$fpl$dleqf) refers to dnaninf.o(x$fpl$dnaninf) for __fpl_dnaninf
    dleqf.o(x$fpl$dleqf) refers to dcmpi.o(x$fpl$dcmpinf) for __fpl_dcmp_Inf
    dmul.o(x$fpl$dmul) refers (Special) to usenofp.o(x$fpl$usenofp) for __I$use$fp
    dmul.o(x$fpl$dmul) refers to dretinf.o(x$fpl$dretinf) for __fpl_dretinf
    dmul.o(x$fpl$dmul) refers to dnaninf.o(x$fpl$dnaninf) for __fpl_dnaninf
    drleqf.o(x$fpl$drleqf) refers (Special) to usenofp.o(x$fpl$usenofp) for __I$use$fp
    drleqf.o(x$fpl$drleqf) refers to dleqf.o(x$fpl$dleqf) for __fpl_dcmple_InfNaN
    f2d.o(x$fpl$f2d) refers (Special) to usenofp.o(x$fpl$usenofp) for __I$use$fp
    f2d.o(x$fpl$f2d) refers to fnaninf.o(x$fpl$fnaninf) for __fpl_fnaninf
    f2d.o(x$fpl$f2d) refers to dretinf.o(x$fpl$dretinf) for __fpl_dretinf
    atan2f.o(i.__hardfp_atan2f) refers (Special) to usenofp.o(x$fpl$usenofp) for __I$use$fp
    atan2f.o(i.__hardfp_atan2f) refers to fpclassifyf.o(i.__ARM_fpclassifyf) for __ARM_fpclassifyf
    atan2f.o(i.__hardfp_atan2f) refers to funder.o(i.__mathlib_flt_underflow) for __mathlib_flt_underflow
    atan2f.o(i.__hardfp_atan2f) refers to funder.o(i.__mathlib_flt_infnan2) for __mathlib_flt_infnan2
    atan2f.o(i.__softfp_atan2f) refers (Special) to usenofp.o(x$fpl$usenofp) for __I$use$fp
    atan2f.o(i.__softfp_atan2f) refers to atan2f.o(i.__hardfp_atan2f) for __hardfp_atan2f
    atan2f.o(i.atan2f) refers (Special) to usenofp.o(x$fpl$usenofp) for __I$use$fp
    atan2f.o(i.atan2f) refers to atan2f.o(i.__hardfp_atan2f) for __hardfp_atan2f
    atan2f_x.o(i.____hardfp_atan2f$lsc) refers (Special) to usenofp.o(x$fpl$usenofp) for __I$use$fp
    atan2f_x.o(i.____hardfp_atan2f$lsc) refers to funder.o(i.__mathlib_flt_infnan2) for __mathlib_flt_infnan2
    atan2f_x.o(i.____hardfp_atan2f$lsc) refers to _rserrno.o(.text) for __set_errno
    atan2f_x.o(i.____softfp_atan2f$lsc) refers (Special) to usenofp.o(x$fpl$usenofp) for __I$use$fp
    atan2f_x.o(i.____softfp_atan2f$lsc) refers to atan2f_x.o(i.____hardfp_atan2f$lsc) for ____hardfp_atan2f$lsc
    atan2f_x.o(i.__atan2f$lsc) refers (Special) to usenofp.o(x$fpl$usenofp) for __I$use$fp
    atan2f_x.o(i.__atan2f$lsc) refers to atan2f_x.o(i.____hardfp_atan2f$lsc) for ____hardfp_atan2f$lsc
    cos.o(i.__hardfp_cos) refers (Special) to usenofp.o(x$fpl$usenofp) for __I$use$fp
    cos.o(i.__hardfp_cos) refers to _rserrno.o(.text) for __set_errno
    cos.o(i.__hardfp_cos) refers to dunder.o(i.__mathlib_dbl_invalid) for __mathlib_dbl_invalid
    cos.o(i.__hardfp_cos) refers to dunder.o(i.__mathlib_dbl_infnan) for __mathlib_dbl_infnan
    cos.o(i.__hardfp_cos) refers to rred.o(i.__ieee754_rem_pio2) for __ieee754_rem_pio2
    cos.o(i.__hardfp_cos) refers to sin_i.o(i.__kernel_sin) for __kernel_sin
    cos.o(i.__hardfp_cos) refers to cos_i.o(i.__kernel_cos) for __kernel_cos
    cos.o(i.__hardfp_cos) refers to basic.o(x$fpl$basic) for __aeabi_dneg
    cos.o(i.__softfp_cos) refers (Special) to usenofp.o(x$fpl$usenofp) for __I$use$fp
    cos.o(i.__softfp_cos) refers to cos.o(i.__hardfp_cos) for __hardfp_cos
    cos.o(i.cos) refers (Special) to usenofp.o(x$fpl$usenofp) for __I$use$fp
    cos.o(i.cos) refers to cos.o(i.__hardfp_cos) for __hardfp_cos
    cos_x.o(i.____hardfp_cos$lsc) refers (Special) to usenofp.o(x$fpl$usenofp) for __I$use$fp
    cos_x.o(i.____hardfp_cos$lsc) refers to _rserrno.o(.text) for __set_errno
    cos_x.o(i.____hardfp_cos$lsc) refers to dunder.o(i.__mathlib_dbl_infnan) for __mathlib_dbl_infnan
    cos_x.o(i.____hardfp_cos$lsc) refers to rred.o(i.__ieee754_rem_pio2) for __ieee754_rem_pio2
    cos_x.o(i.____hardfp_cos$lsc) refers to sin_i.o(i.__kernel_sin) for __kernel_sin
    cos_x.o(i.____hardfp_cos$lsc) refers to cos_i.o(i.__kernel_cos) for __kernel_cos
    cos_x.o(i.____hardfp_cos$lsc) refers to basic.o(x$fpl$basic) for __aeabi_dneg
    cos_x.o(i.____softfp_cos$lsc) refers (Special) to usenofp.o(x$fpl$usenofp) for __I$use$fp
    cos_x.o(i.____softfp_cos$lsc) refers to cos_x.o(i.____hardfp_cos$lsc) for ____hardfp_cos$lsc
    cos_x.o(i.__cos$lsc) refers (Special) to usenofp.o(x$fpl$usenofp) for __I$use$fp
    cos_x.o(i.__cos$lsc) refers to cos_x.o(i.____hardfp_cos$lsc) for ____hardfp_cos$lsc
    cosf.o(i.__hardfp_cosf) refers (Special) to usenofp.o(x$fpl$usenofp) for __I$use$fp
    cosf.o(i.__hardfp_cosf) refers to rredf.o(i.__mathlib_rredf2) for __mathlib_rredf2
    cosf.o(i.__hardfp_cosf) refers to _rserrno.o(.text) for __set_errno
    cosf.o(i.__hardfp_cosf) refers to funder.o(i.__mathlib_flt_invalid) for __mathlib_flt_invalid
    cosf.o(i.__hardfp_cosf) refers to funder.o(i.__mathlib_flt_infnan) for __mathlib_flt_infnan
    cosf.o(i.__softfp_cosf) refers (Special) to usenofp.o(x$fpl$usenofp) for __I$use$fp
    cosf.o(i.__softfp_cosf) refers to cosf.o(i.__hardfp_cosf) for __hardfp_cosf
    cosf.o(i.cosf) refers (Special) to usenofp.o(x$fpl$usenofp) for __I$use$fp
    cosf.o(i.cosf) refers to cosf.o(i.__hardfp_cosf) for __hardfp_cosf
    cosf_x.o(i.____hardfp_cosf$lsc) refers (Special) to usenofp.o(x$fpl$usenofp) for __I$use$fp
    cosf_x.o(i.____hardfp_cosf$lsc) refers to rredf.o(i.__mathlib_rredf2) for __mathlib_rredf2
    cosf_x.o(i.____hardfp_cosf$lsc) refers to _rserrno.o(.text) for __set_errno
    cosf_x.o(i.____hardfp_cosf$lsc) refers to funder.o(i.__mathlib_flt_infnan) for __mathlib_flt_infnan
    cosf_x.o(i.____softfp_cosf$lsc) refers (Special) to usenofp.o(x$fpl$usenofp) for __I$use$fp
    cosf_x.o(i.____softfp_cosf$lsc) refers to cosf_x.o(i.____hardfp_cosf$lsc) for ____hardfp_cosf$lsc
    cosf_x.o(i.__cosf$lsc) refers (Special) to usenofp.o(x$fpl$usenofp) for __I$use$fp
    cosf_x.o(i.__cosf$lsc) refers to cosf_x.o(i.____hardfp_cosf$lsc) for ____hardfp_cosf$lsc
    sin.o(i.__hardfp_sin) refers (Special) to usenofp.o(x$fpl$usenofp) for __I$use$fp
    sin.o(i.__hardfp_sin) refers to _rserrno.o(.text) for __set_errno
    sin.o(i.__hardfp_sin) refers to dunder.o(i.__mathlib_dbl_invalid) for __mathlib_dbl_invalid
    sin.o(i.__hardfp_sin) refers to dunder.o(i.__mathlib_dbl_infnan) for __mathlib_dbl_infnan
    sin.o(i.__hardfp_sin) refers to rred.o(i.__ieee754_rem_pio2) for __ieee754_rem_pio2
    sin.o(i.__hardfp_sin) refers to cos_i.o(i.__kernel_cos) for __kernel_cos
    sin.o(i.__hardfp_sin) refers to basic.o(x$fpl$basic) for __aeabi_dneg
    sin.o(i.__hardfp_sin) refers to sin_i.o(i.__kernel_sin) for __kernel_sin
    sin.o(i.__softfp_sin) refers (Special) to usenofp.o(x$fpl$usenofp) for __I$use$fp
    sin.o(i.__softfp_sin) refers to sin.o(i.__hardfp_sin) for __hardfp_sin
    sin.o(i.sin) refers (Special) to usenofp.o(x$fpl$usenofp) for __I$use$fp
    sin.o(i.sin) refers to sin.o(i.__hardfp_sin) for __hardfp_sin
    sin_x.o(i.____hardfp_sin$lsc) refers (Special) to usenofp.o(x$fpl$usenofp) for __I$use$fp
    sin_x.o(i.____hardfp_sin$lsc) refers to _rserrno.o(.text) for __set_errno
    sin_x.o(i.____hardfp_sin$lsc) refers to dunder.o(i.__mathlib_dbl_infnan) for __mathlib_dbl_infnan
    sin_x.o(i.____hardfp_sin$lsc) refers to rred.o(i.__ieee754_rem_pio2) for __ieee754_rem_pio2
    sin_x.o(i.____hardfp_sin$lsc) refers to cos_i.o(i.__kernel_cos) for __kernel_cos
    sin_x.o(i.____hardfp_sin$lsc) refers to basic.o(x$fpl$basic) for __aeabi_dneg
    sin_x.o(i.____hardfp_sin$lsc) refers to sin_i.o(i.__kernel_sin) for __kernel_sin
    sin_x.o(i.____softfp_sin$lsc) refers (Special) to usenofp.o(x$fpl$usenofp) for __I$use$fp
    sin_x.o(i.____softfp_sin$lsc) refers to sin_x.o(i.____hardfp_sin$lsc) for ____hardfp_sin$lsc
    sin_x.o(i.__sin$lsc) refers (Special) to usenofp.o(x$fpl$usenofp) for __I$use$fp
    sin_x.o(i.__sin$lsc) refers to sin_x.o(i.____hardfp_sin$lsc) for ____hardfp_sin$lsc
    sinf.o(i.__hardfp_sinf) refers (Special) to usenofp.o(x$fpl$usenofp) for __I$use$fp
    sinf.o(i.__hardfp_sinf) refers to rredf.o(i.__mathlib_rredf2) for __mathlib_rredf2
    sinf.o(i.__hardfp_sinf) refers to fpclassifyf.o(i.__ARM_fpclassifyf) for __ARM_fpclassifyf
    sinf.o(i.__hardfp_sinf) refers to funder.o(i.__mathlib_flt_underflow) for __mathlib_flt_underflow
    sinf.o(i.__hardfp_sinf) refers to _rserrno.o(.text) for __set_errno
    sinf.o(i.__hardfp_sinf) refers to funder.o(i.__mathlib_flt_invalid) for __mathlib_flt_invalid
    sinf.o(i.__hardfp_sinf) refers to funder.o(i.__mathlib_flt_infnan) for __mathlib_flt_infnan
    sinf.o(i.__softfp_sinf) refers (Special) to usenofp.o(x$fpl$usenofp) for __I$use$fp
    sinf.o(i.__softfp_sinf) refers to sinf.o(i.__hardfp_sinf) for __hardfp_sinf
    sinf.o(i.sinf) refers (Special) to usenofp.o(x$fpl$usenofp) for __I$use$fp
    sinf.o(i.sinf) refers to sinf.o(i.__hardfp_sinf) for __hardfp_sinf
    sinf_x.o(i.____hardfp_sinf$lsc) refers (Special) to usenofp.o(x$fpl$usenofp) for __I$use$fp
    sinf_x.o(i.____hardfp_sinf$lsc) refers to rredf.o(i.__mathlib_rredf2) for __mathlib_rredf2
    sinf_x.o(i.____hardfp_sinf$lsc) refers to _rserrno.o(.text) for __set_errno
    sinf_x.o(i.____hardfp_sinf$lsc) refers to funder.o(i.__mathlib_flt_infnan) for __mathlib_flt_infnan
    sinf_x.o(i.____softfp_sinf$lsc) refers (Special) to usenofp.o(x$fpl$usenofp) for __I$use$fp
    sinf_x.o(i.____softfp_sinf$lsc) refers to sinf_x.o(i.____hardfp_sinf$lsc) for ____hardfp_sinf$lsc
    sinf_x.o(i.__sinf$lsc) refers (Special) to usenofp.o(x$fpl$usenofp) for __I$use$fp
    sinf_x.o(i.__sinf$lsc) refers to sinf_x.o(i.____hardfp_sinf$lsc) for ____hardfp_sinf$lsc
    __rtentry.o(.ARM.Collect$$rtentry$$00000000) refers (Special) to __rtentry2.o(.ARM.Collect$$rtentry$$0000000A) for __rt_entry_li
    __rtentry.o(.ARM.Collect$$rtentry$$00000000) refers (Special) to __rtentry2.o(.ARM.Collect$$rtentry$$0000000D) for __rt_entry_main
    __rtentry.o(.ARM.Collect$$rtentry$$00000000) refers (Special) to __rtentry2.o(.ARM.Collect$$rtentry$$0000000C) for __rt_entry_postli_1
    __rtentry.o(.ARM.Collect$$rtentry$$00000000) refers (Special) to __rtentry2.o(.ARM.Collect$$rtentry$$00000009) for __rt_entry_postsh_1
    __rtentry.o(.ARM.Collect$$rtentry$$00000000) refers (Special) to __rtentry2.o(.ARM.Collect$$rtentry$$00000002) for __rt_entry_presh_1
    __rtentry.o(.ARM.Collect$$rtentry$$00000000) refers (Special) to __rtentry4.o(.ARM.Collect$$rtentry$$00000004) for __rt_entry_sh
    rt_heap_descriptor.o(.text) refers to rt_heap_descriptor.o(.bss) for __rt_heap_descriptor_data
    rt_heap_descriptor_intlibspace.o(.text) refers to libspace.o(.bss) for __libspace_start
    rt_new_handler_addr.o(.text) refers to rt_new_handler_addr.o(.bss) for __rt_new_handler_addr_data
    rt_new_handler_addr_intlibspace.o(.text) refers to libspace.o(.bss) for __libspace_start
    rt_ddtor_pointer_addr.o(.text) refers to rt_ddtor_pointer_addr.o(.bss) for __rt_ddtor_pointer_addr_data
    rt_ddtor_pointer_addr_intlibspace.o(.text) refers to libspace.o(.bss) for __libspace_start
    init_alloc.o(.text) refers (Special) to hguard.o(.text) for __heap$guard
    init_alloc.o(.text) refers (Special) to libinit2.o(.ARM.Collect$$libinit$$00000005) for __rt_lib_init_heap_2
    init_alloc.o(.text) refers (Special) to maybetermalloc1.o(.emb_text) for _maybe_terminate_alloc
    init_alloc.o(.text) refers to heapauxmm.o(.text) for __rt_heap_expand
    init_alloc.o(.text) refers to h1_extend.o(.text) for __Heap_ProvideMemory
    init_alloc.o(.text) refers to defsig_rtmem_outer.o(.text) for __rt_SIGRTMEM
    init_alloc.o(.text) refers to rt_heap_descriptor.o(.text) for __rt_heap_descriptor
    init_alloc.o(.text) refers to h1_init.o(.text) for __Heap_Initialize
    h1_init_mt.o(.text) refers to mutex_dummy.o(.text) for _mutex_initialize
    _rserrno.o(.text) refers to rt_errno_addr.o(.text) for __aeabi_errno_addr
    _printf_str.o(.text) refers (Special) to _printf_char.o(.text) for _printf_cs_common
    _printf_str.o(.text) refers (Weak) to _printf_pad.o(.text) for _printf_pre_padding
    _printf_str.o(.text) refers (Weak) to _printf_pad.o(.text) for _printf_post_padding
    _printf_intcommon.o(.text) refers (Weak) to _printf_pad.o(.text) for _printf_pre_padding
    _printf_intcommon.o(.text) refers (Weak) to _printf_pad.o(.text) for _printf_pre_padding
    _printf_intcommon.o(.text) refers (Weak) to _printf_pad.o(.text) for _printf_post_padding
    _printf_dec.o(.text) refers (Weak) to _printf_truncate.o(.text) for _printf_truncate_signed
    _printf_dec.o(.text) refers (Weak) to _printf_truncate.o(.text) for _printf_truncate_unsigned
    _printf_dec.o(.text) refers to _printf_intcommon.o(.text) for _printf_int_common
    _printf_char_common.o(.text) refers to __printf_flags_ss_wp.o(.text) for __printf
    _printf_char_file.o(.text) refers to _printf_char_common.o(.text) for _printf_char_common
    _printf_char_file.o(.text) refers to ferror.o(.text) for ferror
    _printf_char_file.o(.text) refers to fputc.o(i.fputc) for fputc
    _printf_wctomb.o(.text) refers (Special) to _printf_wchar.o(.text) for _printf_lcs_common
    _printf_wctomb.o(.text) refers to _wcrtomb.o(.text) for _wcrtomb
    _printf_wctomb.o(.text) refers (Weak) to _printf_pad.o(.text) for _printf_pre_padding
    _printf_wctomb.o(.text) refers (Weak) to _printf_pad.o(.text) for _printf_post_padding
    _printf_wctomb.o(.text) refers to _printf_wctomb.o(.constdata) for .constdata
    _printf_wctomb.o(.constdata) refers (Special) to _printf_wchar.o(.text) for _printf_lcs_common
    _printf_longlong_dec.o(.text) refers to lludiv10.o(.text) for _ll_udiv10
    _printf_longlong_dec.o(.text) refers to _printf_intcommon.o(.text) for _printf_int_common
    _printf_oct_ll.o(.text) refers to _printf_intcommon.o(.text) for _printf_int_common
    _printf_oct_int.o(.text) refers (Weak) to _printf_truncate.o(.text) for _printf_truncate_unsigned
    _printf_oct_int.o(.text) refers to _printf_intcommon.o(.text) for _printf_int_common
    _printf_oct_int_ll.o(.text) refers to _printf_intcommon.o(.text) for _printf_int_common
    _printf_oct_int_ll.o(.text) refers (Weak) to _printf_truncate.o(.text) for _printf_truncate_unsigned
    _printf_c.o(.ARM.Collect$$_printf_percent$$00000013) refers (Weak) to _printf_char.o(.text) for _printf_char
    _printf_s.o(.ARM.Collect$$_printf_percent$$00000014) refers (Weak) to _printf_char.o(.text) for _printf_string
    _printf_n.o(.ARM.Collect$$_printf_percent$$00000001) refers (Weak) to _printf_charcount.o(.text) for _printf_charcount
    _printf_x.o(.ARM.Collect$$_printf_percent$$0000000C) refers (Weak) to _printf_hex_int_ll_ptr.o(.text) for _printf_int_hex
    _printf_o.o(.ARM.Collect$$_printf_percent$$0000000B) refers (Weak) to _printf_oct_int_ll.o(.text) for _printf_int_oct
    _printf_i.o(.ARM.Collect$$_printf_percent$$00000008) refers (Weak) to _printf_dec.o(.text) for _printf_int_dec
    _printf_d.o(.ARM.Collect$$_printf_percent$$00000009) refers (Weak) to _printf_dec.o(.text) for _printf_int_dec
    _printf_u.o(.ARM.Collect$$_printf_percent$$0000000A) refers (Weak) to _printf_dec.o(.text) for _printf_int_dec
    _printf_f.o(.ARM.Collect$$_printf_percent$$00000003) refers (Weak) to printf1.o(x$fpl$printf1) for _printf_fp_dec
    _printf_e.o(.ARM.Collect$$_printf_percent$$00000004) refers (Weak) to printf1.o(x$fpl$printf1) for _printf_fp_dec
    _printf_g.o(.ARM.Collect$$_printf_percent$$00000005) refers (Weak) to printf1.o(x$fpl$printf1) for _printf_fp_dec
    _printf_a.o(.ARM.Collect$$_printf_percent$$00000006) refers (Weak) to printf2.o(x$fpl$printf2) for _printf_fp_hex
    _printf_lli.o(.ARM.Collect$$_printf_percent$$0000000D) refers (Special) to _printf_ll.o(.ARM.Collect$$_printf_percent$$00000007) for _printf_ll
    _printf_lli.o(.ARM.Collect$$_printf_percent$$0000000D) refers (Weak) to _printf_longlong_dec.o(.text) for _printf_longlong_dec
    _printf_lld.o(.ARM.Collect$$_printf_percent$$0000000E) refers (Special) to _printf_ll.o(.ARM.Collect$$_printf_percent$$00000007) for _printf_ll
    _printf_lld.o(.ARM.Collect$$_printf_percent$$0000000E) refers (Weak) to _printf_longlong_dec.o(.text) for _printf_longlong_dec
    _printf_llu.o(.ARM.Collect$$_printf_percent$$0000000F) refers (Special) to _printf_ll.o(.ARM.Collect$$_printf_percent$$00000007) for _printf_ll
    _printf_llu.o(.ARM.Collect$$_printf_percent$$0000000F) refers (Weak) to _printf_longlong_dec.o(.text) for _printf_longlong_dec
    _printf_lc.o(.ARM.Collect$$_printf_percent$$00000015) refers (Special) to _printf_l.o(.ARM.Collect$$_printf_percent$$00000012) for _printf_l
    _printf_lc.o(.ARM.Collect$$_printf_percent$$00000015) refers (Weak) to _printf_wchar.o(.text) for _printf_wchar
    _printf_ls.o(.ARM.Collect$$_printf_percent$$00000016) refers (Special) to _printf_l.o(.ARM.Collect$$_printf_percent$$00000012) for _printf_l
    _printf_ls.o(.ARM.Collect$$_printf_percent$$00000016) refers (Weak) to _printf_wchar.o(.text) for _printf_wstring
    _printf_llo.o(.ARM.Collect$$_printf_percent$$00000010) refers (Special) to _printf_ll.o(.ARM.Collect$$_printf_percent$$00000007) for _printf_ll
    _printf_llo.o(.ARM.Collect$$_printf_percent$$00000010) refers (Weak) to _printf_oct_int_ll.o(.text) for _printf_ll_oct
    _printf_llx.o(.ARM.Collect$$_printf_percent$$00000011) refers (Special) to _printf_ll.o(.ARM.Collect$$_printf_percent$$00000007) for _printf_ll
    _printf_llx.o(.ARM.Collect$$_printf_percent$$00000011) refers (Weak) to _printf_hex_int_ll_ptr.o(.text) for _printf_ll_hex
    _scanf_longlong.o(.text) refers to _chval.o(.text) for _chval
    scanf_char.o(.text) refers to _scanf.o(.text) for __vfscanf
    scanf_char.o(.text) refers to isspace.o(.text) for isspace
    scanf_char_file.o(.text) refers to scanf_char.o(.text) for __vfscanf_char
    scanf_char_file.o(.text) refers to fgetc.o(i.fgetc) for fgetc
    scanf_char_file.o(.text) refers to backspace.o(.text) for __backspace
    _scanf_mbtowc.o(.text) refers to _mbrtowc.o(.text) for _mbrtowc
    _scanf_wctomb.o(.text) refers to _wcrtomb.o(.text) for _wcrtomb
    _scanf_wctomb.o(.text) refers to _scanf_wcharmap.o(.text) for _scanf_wcharmap
    _scanf_wstr.o(.text) refers to _scanf_wcharmap.o(.text) for _scanf_wcharmap
    filbuf.o(.text) refers to retarget.o(i._sys_read) for _sys_read
    filbuf.o(.text) refers to stdio.o(.text) for _seterr
    filbuf.o(.text) refers to h1_alloc.o(.text) for malloc
    filbuf.o(.text) refers to retarget.o(i._sys_seek) for _sys_seek
    filbuf.o(.text) refers to flushlinebuffered.o(.text) for _flushlinebuffered
    flsbuf.o(.text) refers to stdio.o(.text) for _deferredlazyseek
    flsbuf.o(.text) refers to retarget.o(i._sys_flen) for _sys_flen
    flsbuf.o(.text) refers to retarget.o(i._sys_istty) for _sys_istty
    flsbuf.o(.text) refers to h1_alloc.o(.text) for malloc
    fseek.o(.text) refers to retarget.o(i._sys_istty) for _sys_istty
    fseek.o(.text) refers to ftell.o(.text) for _ftell_internal
    fseek.o(.text) refers to retarget.o(i._sys_flen) for _sys_flen
    fseek.o(.text) refers to stdio.o(.text) for _seterr
    stdio.o(.text) refers to retarget.o(i._sys_seek) for _sys_seek
    stdio.o(.text) refers to retarget.o(i._sys_write) for _sys_write
    streamlock.o(.data) refers (Special) to initio.o(.text) for _initio
    initio.o(.text) refers (Special) to libinit2.o(.ARM.Collect$$libinit$$00000024) for __rt_lib_init_stdio_2
    initio.o(.text) refers (Special) to libshutdown2.o(.ARM.Collect$$libshutdown$$00000004) for __rt_lib_shutdown_stdio_2
    initio.o(.text) refers to rt_memclr_w.o(.text) for __aeabi_memclr4
    initio.o(.text) refers to fopen.o(.text) for freopen
    initio.o(.text) refers to defsig_rtred_outer.o(.text) for __rt_SIGRTRED
    initio.o(.text) refers to setvbuf.o(.text) for setvbuf
    initio.o(.text) refers to fclose.o(.text) for _fclose_internal
    initio.o(.text) refers to h1_free.o(.text) for free
    initio.o(.text) refers to stdio_streams.o(.bss) for __stdin
    initio.o(.text) refers to stdio_streams.o(.bss) for __stdout
    initio.o(.text) refers to stdio_streams.o(.bss) for __stderr
    initio.o(.text) refers to stdio_streams.o(.data) for __aeabi_stdin
    initio.o(.text) refers to stdio_streams.o(.data) for __aeabi_stdout
    initio.o(.text) refers to stdio_streams.o(.data) for __aeabi_stderr
    initio.o(.text) refers to retarget.o(.constdata) for __stdin_name
    initio_locked.o(.text) refers (Special) to libinit2.o(.ARM.Collect$$libinit$$00000024) for __rt_lib_init_stdio_2
    initio_locked.o(.text) refers (Special) to libshutdown2.o(.ARM.Collect$$libshutdown$$00000004) for __rt_lib_shutdown_stdio_2
    initio_locked.o(.text) refers to rt_memclr_w.o(.text) for __aeabi_memclr4
    initio_locked.o(.text) refers to fopen.o(.text) for freopen
    initio_locked.o(.text) refers to defsig_rtred_outer.o(.text) for __rt_SIGRTRED
    initio_locked.o(.text) refers to setvbuf.o(.text) for setvbuf
    initio_locked.o(.text) refers to fclose.o(.text) for _fclose_internal
    initio_locked.o(.text) refers to h1_free.o(.text) for free
    initio_locked.o(.text) refers to stdio_streams.o(.bss) for __stdin
    initio_locked.o(.text) refers to stdio_streams.o(.bss) for __stdout
    initio_locked.o(.text) refers to stdio_streams.o(.bss) for __stderr
    initio_locked.o(.text) refers to stdio_streams.o(.data) for __aeabi_stdin
    initio_locked.o(.text) refers to stdio_streams.o(.data) for __aeabi_stdout
    initio_locked.o(.text) refers to stdio_streams.o(.data) for __aeabi_stderr
    initio_locked.o(.text) refers to streamlock.o(.data) for _stream_list_lock
    initio_locked.o(.text) refers to retarget.o(.constdata) for __stdin_name
    cxa_finalize.o(.text) refers (Special) to libshutdown2.o(.ARM.Collect$$libshutdown$$00000002) for __rt_lib_shutdown_cpp_2
    cxa_finalize.o(.text) refers to rt_ddtor_pointer_addr.o(.text) for __rt_ddtor_pointer_addr
    cxa_finalize.o(.text) refers to h1_free.o(.text) for free
    cxa_finalize.o(.ARM.exidx) refers (Special) to libshutdown2.o(.ARM.Collect$$libshutdown$$00000002) for __rt_lib_shutdown_cpp_2
    cxa_finalize.o(.ARM.exidx) refers to cxa_finalize.o(.text) for .text
    defsig_pvfn_outer.o(.text) refers to defsig_pvfn_inner.o(.text) for __rt_SIGPVFN_inner
    defsig_pvfn_outer.o(.text) refers to defsig_exit.o(.text) for __sig_exit
    defsig_pvfn_formal.o(.text) refers to rt_raise.o(.text) for __rt_raise
    localtime_internal.o(.text) refers to rt_memclr_w.o(.text) for __aeabi_memclr4
    localtime_internal.o(.text) refers to _monlen.o(.constdata) for _monlen
    _get_argv.o(.text) refers (Special) to hrguard.o(.text) for __heap_region$guard
    _get_argv.o(.text) refers to h1_alloc.o(.text) for malloc
    _get_argv.o(.text) refers to defsig_rtmem_outer.o(.text) for __rt_SIGRTMEM
    _get_argv.o(.text) refers to retarget.o(i._sys_command_string) for _sys_command_string
    libinit2.o(.ARM.Collect$$libinit$$00000001) refers to fpinit.o(x$fpl$fpinit) for _fp_init
    libinit2.o(.ARM.Collect$$libinit$$00000005) refers (Weak) to init_alloc.o(.text) for _init_alloc
    libinit2.o(.ARM.Collect$$libinit$$0000000F) refers (Weak) to rt_locale.o(.text) for __rt_locale
    libinit2.o(.ARM.Collect$$libinit$$00000010) refers to libinit2.o(.ARM.Collect$$libinit$$0000000F) for .ARM.Collect$$libinit$$0000000F
    libinit2.o(.ARM.Collect$$libinit$$00000012) refers to libinit2.o(.ARM.Collect$$libinit$$0000000F) for .ARM.Collect$$libinit$$0000000F
    libinit2.o(.ARM.Collect$$libinit$$00000012) refers (Weak) to lc_ctype_c.o(locale$$code) for _get_lc_ctype
    libinit2.o(.ARM.Collect$$libinit$$00000014) refers to libinit2.o(.ARM.Collect$$libinit$$0000000F) for .ARM.Collect$$libinit$$0000000F
    libinit2.o(.ARM.Collect$$libinit$$00000016) refers to libinit2.o(.ARM.Collect$$libinit$$0000000F) for .ARM.Collect$$libinit$$0000000F
    libinit2.o(.ARM.Collect$$libinit$$00000016) refers (Weak) to lc_numeric_c.o(locale$$code) for _get_lc_numeric
    libinit2.o(.ARM.Collect$$libinit$$00000018) refers to libinit2.o(.ARM.Collect$$libinit$$0000000F) for .ARM.Collect$$libinit$$0000000F
    libinit2.o(.ARM.Collect$$libinit$$00000024) refers (Weak) to initio.o(.text) for _initio
    libinit2.o(.ARM.Collect$$libinit$$00000026) refers to argv_veneer.o(.emb_text) for __ARM_argv_veneer
    libinit2.o(.ARM.Collect$$libinit$$00000027) refers to argv_veneer.o(.emb_text) for __ARM_argv_veneer
    libinit2.o(.ARM.Collect$$libinit$$00000031) refers (Weak) to init_aeabi.o(.text) for __cpp_initialize__aeabi_
    filbuf_fwide.o(.text) refers to filbuf.o(.text) for __filbuf
    flsbuf_fwide.o(.text) refers to flsbuf.o(.text) for __flsbuf
    arm_callunex_noexceptions.o(.ARM.exidx) refers to arm_callunex_noexceptions.o(.text) for .text
    arm_newhandler_noexceptions.o(.text) refers to arm_exceptions_terminate.o(.text) for std::terminate()
    arm_newhandler_noexceptions.o(.ARM.exidx) refers to arm_newhandler_noexceptions.o(.text) for .text
    bad_alloc_dtor.o(i._ZNSt9bad_allocD0Ev) refers to bad_alloc_dtor.o(i._ZNSt9bad_allocD1Ev) for std::bad_alloc::~bad_alloc()
    bad_alloc_dtor.o(i._ZNSt9bad_allocD0Ev) refers to delete.o(i._ZdlPv) for operator delete (void*)
    bad_alloc_dtor.o(.ARM.exidx) refers to bad_alloc_dtor.o(i._ZNSt9bad_allocD1Ev) for i._ZNSt9bad_allocD1Ev
    bad_alloc_dtor.o(.ARM.exidx) refers to bad_alloc_dtor.o(i._ZNSt9bad_allocD0Ev) for i._ZNSt9bad_allocD0Ev
    type_info_dtor.o(.ARM.exidx) refers to type_info_dtor.o(i._ZNSt9type_infoD1Ev) for i._ZNSt9type_infoD1Ev
    type_info_dtor.o(.ARM.exidx) refers to type_info_dtor.o(i._ZNSt9type_infoD0Ev) for i._ZNSt9type_infoD0Ev
    arm_exceptions_callterm.o(.text) refers to arm_exceptions_globs.o(.text) for __cxa_get_globals
    arm_exceptions_callterm.o(.text) refers to arm_exceptions_support.o(.text) for __ARM::is_foreign_exception(_Unwind_Control_Block*)
    arm_exceptions_callterm.o(.text) refers to arm_exceptions_terminate.o(.text) for std::terminate()
    arm_exceptions_callterm.o(.ARM.exidx) refers to arm_exceptions_callterm.o(.text) for .text
    unwind_pr0.o(.text) refers to unwind_prcommon.o(.text) for __ARM_unwind_cpp_prcommon
    unwind_pr0.o(.ARM.exidx) refers to unwind_pr0.o(.text) for .text
    basic.o(x$fpl$basic) refers (Special) to usenofp.o(x$fpl$usenofp) for __I$use$fp
    dcmpi.o(x$fpl$dcmpinf) refers (Special) to usenofp.o(x$fpl$usenofp) for __I$use$fp
    dnaninf.o(x$fpl$dnaninf) refers (Special) to usenofp.o(x$fpl$usenofp) for __I$use$fp
    dretinf.o(x$fpl$dretinf) refers (Special) to usenofp.o(x$fpl$usenofp) for __I$use$fp
    fnaninf.o(x$fpl$fnaninf) refers (Special) to usenofp.o(x$fpl$usenofp) for __I$use$fp
    fretinf.o(x$fpl$fretinf) refers (Special) to usenofp.o(x$fpl$usenofp) for __I$use$fp
    printf1.o(x$fpl$printf1) refers to _printf_fp_dec.o(.text) for _printf_fp_dec_real
    printf2.o(x$fpl$printf2) refers to _printf_fp_hex.o(.text) for _printf_fp_hex_real
    printf2b.o(x$fpl$printf2) refers to _printf_fp_hex.o(.text) for _printf_fp_hex_real
    scanf1.o(x$fpl$scanf1) refers to scanf_fp.o(.text) for _scanf_really_real
    cos_i.o(i.__kernel_cos) refers (Special) to usenofp.o(x$fpl$usenofp) for __I$use$fp
    cos_i.o(i.__kernel_cos) refers to dfix.o(x$fpl$dfix) for __aeabi_d2iz
    cos_i.o(i.__kernel_cos) refers to dmul.o(x$fpl$dmul) for __aeabi_dmul
    cos_i.o(i.__kernel_cos) refers to poly.o(i.__kernel_poly) for __kernel_poly
    cos_i.o(i.__kernel_cos) refers to daddsub_clz.o(x$fpl$dsub) for __aeabi_dsub
    cos_i.o(i.__kernel_cos) refers to daddsub_clz.o(x$fpl$drsb) for __aeabi_drsub
    cos_i.o(i.__kernel_cos) refers to cos_i.o(.constdata) for .constdata
    cos_i.o(.constdata) refers (Special) to usenofp.o(x$fpl$usenofp) for __I$use$fp
    dunder.o(i.__mathlib_dbl_divzero) refers to ddiv.o(x$fpl$ddiv) for __aeabi_ddiv
    dunder.o(i.__mathlib_dbl_infnan) refers to daddsub_clz.o(x$fpl$dadd) for __aeabi_dadd
    dunder.o(i.__mathlib_dbl_infnan2) refers to daddsub_clz.o(x$fpl$dadd) for __aeabi_dadd
    dunder.o(i.__mathlib_dbl_invalid) refers to ddiv.o(x$fpl$ddiv) for __aeabi_ddiv
    dunder.o(i.__mathlib_dbl_overflow) refers to dmul.o(x$fpl$dmul) for __aeabi_dmul
    dunder.o(i.__mathlib_dbl_posinfnan) refers to dmul.o(x$fpl$dmul) for __aeabi_dmul
    dunder.o(i.__mathlib_dbl_underflow) refers to dmul.o(x$fpl$dmul) for __aeabi_dmul
    fpclassifyf.o(i.__ARM_fpclassifyf) refers (Special) to usenofp.o(x$fpl$usenofp) for __I$use$fp
    rred.o(i.__ieee754_rem_pio2) refers (Special) to usenofp.o(x$fpl$usenofp) for __I$use$fp
    rred.o(i.__ieee754_rem_pio2) refers to daddsub_clz.o(x$fpl$dsub) for __aeabi_dsub
    rred.o(i.__ieee754_rem_pio2) refers to daddsub_clz.o(x$fpl$dadd) for __aeabi_dadd
    rred.o(i.__ieee754_rem_pio2) refers to fabs.o(i.fabs) for fabs
    rred.o(i.__ieee754_rem_pio2) refers to dmul.o(x$fpl$dmul) for __aeabi_dmul
    rred.o(i.__ieee754_rem_pio2) refers to dfix.o(x$fpl$dfix) for __aeabi_d2iz
    rred.o(i.__ieee754_rem_pio2) refers to dflt_clz.o(x$fpl$dflt) for __aeabi_i2d
    rred.o(i.__ieee754_rem_pio2) refers to daddsub_clz.o(x$fpl$drsb) for __aeabi_drsub
    rred.o(i.__ieee754_rem_pio2) refers to basic.o(x$fpl$basic) for __aeabi_dneg
    rred.o(i.__ieee754_rem_pio2) refers to dflt_clz.o(x$fpl$dfltu) for __aeabi_ui2d
    rred.o(i.__ieee754_rem_pio2) refers to rred.o(.constdata) for .constdata
    rred.o(i.__use_accurate_range_reduction) refers (Special) to usenofp.o(x$fpl$usenofp) for __I$use$fp
    rred.o(.constdata) refers (Special) to usenofp.o(x$fpl$usenofp) for __I$use$fp
    rredf.o(i.__mathlib_rredf2) refers (Special) to usenofp.o(x$fpl$usenofp) for __I$use$fp
    rredf.o(i.__mathlib_rredf2) refers to rredf.o(.constdata) for .constdata
    rredf.o(.constdata) refers (Special) to usenofp.o(x$fpl$usenofp) for __I$use$fp
    sin_i.o(i.__kernel_sin) refers (Special) to usenofp.o(x$fpl$usenofp) for __I$use$fp
    sin_i.o(i.__kernel_sin) refers to fpclassify.o(i.__ARM_fpclassify) for __ARM_fpclassify
    sin_i.o(i.__kernel_sin) refers to dunder.o(i.__mathlib_dbl_underflow) for __mathlib_dbl_underflow
    sin_i.o(i.__kernel_sin) refers to dmul.o(x$fpl$dmul) for __aeabi_dmul
    sin_i.o(i.__kernel_sin) refers to poly.o(i.__kernel_poly) for __kernel_poly
    sin_i.o(i.__kernel_sin) refers to daddsub_clz.o(x$fpl$dsub) for __aeabi_dsub
    sin_i.o(i.__kernel_sin) refers to daddsub_clz.o(x$fpl$drsb) for __aeabi_drsub
    sin_i.o(i.__kernel_sin) refers to daddsub_clz.o(x$fpl$dadd) for __aeabi_dadd
    sin_i.o(i.__kernel_sin) refers to sin_i.o(.constdata) for .constdata
    sin_i.o(.constdata) refers (Special) to usenofp.o(x$fpl$usenofp) for __I$use$fp
    sin_i_x.o(i.____kernel_sin$lsc) refers (Special) to usenofp.o(x$fpl$usenofp) for __I$use$fp
    sin_i_x.o(i.____kernel_sin$lsc) refers to dmul.o(x$fpl$dmul) for __aeabi_dmul
    sin_i_x.o(i.____kernel_sin$lsc) refers to poly.o(i.__kernel_poly) for __kernel_poly
    sin_i_x.o(i.____kernel_sin$lsc) refers to daddsub_clz.o(x$fpl$dsub) for __aeabi_dsub
    sin_i_x.o(i.____kernel_sin$lsc) refers to daddsub_clz.o(x$fpl$drsb) for __aeabi_drsub
    sin_i_x.o(i.____kernel_sin$lsc) refers to daddsub_clz.o(x$fpl$dadd) for __aeabi_dadd
    sin_i_x.o(i.____kernel_sin$lsc) refers to sin_i_x.o(.constdata) for .constdata
    sin_i_x.o(.constdata) refers (Special) to usenofp.o(x$fpl$usenofp) for __I$use$fp
    libspace.o(.text) refers to libspace.o(.bss) for __libspace_start
    __rtentry2.o(.ARM.Collect$$rtentry$$00000008) refers to boardinit2.o(.text) for _platform_post_stackheap_init
    __rtentry2.o(.ARM.Collect$$rtentry$$0000000A) refers to libinit.o(.ARM.Collect$$libinit$$00000000) for __rt_lib_init
    __rtentry2.o(.ARM.Collect$$rtentry$$0000000B) refers to boardinit3.o(.text) for _platform_post_lib_init
    __rtentry2.o(.ARM.Collect$$rtentry$$0000000D) refers to retarget.o(i.$Sub$$main) for main
    __rtentry2.o(.ARM.Collect$$rtentry$$0000000D) refers to retarget.o(i.exit) for exit
    __rtentry2.o(.ARM.exidx) refers to __rtentry2.o(.ARM.Collect$$rtentry$$00000001) for .ARM.Collect$$rtentry$$00000001
    __rtentry2.o(.ARM.exidx) refers to __rtentry2.o(.ARM.Collect$$rtentry$$00000008) for .ARM.Collect$$rtentry$$00000008
    __rtentry2.o(.ARM.exidx) refers to __rtentry2.o(.ARM.Collect$$rtentry$$0000000A) for .ARM.Collect$$rtentry$$0000000A
    __rtentry2.o(.ARM.exidx) refers to __rtentry2.o(.ARM.Collect$$rtentry$$0000000B) for .ARM.Collect$$rtentry$$0000000B
    __rtentry2.o(.ARM.exidx) refers to __rtentry2.o(.ARM.Collect$$rtentry$$0000000D) for .ARM.Collect$$rtentry$$0000000D
    __rtentry4.o(.ARM.Collect$$rtentry$$00000004) refers to sys.o(i.__user_setup_stackheap) for __user_setup_stackheap
    __rtentry4.o(.ARM.exidx) refers to __rtentry4.o(.ARM.Collect$$rtentry$$00000004) for .ARM.Collect$$rtentry$$00000004
    rt_raise.o(.text) refers to __raise.o(.text) for __raise
    rt_raise.o(.text) refers to sys_exit.o(.text) for _sys_exit
    rt_errno_addr.o(.text) refers to rt_errno_addr.o(.bss) for __aeabi_errno_addr_data
    rt_errno_addr_intlibspace.o(.text) refers to libspace.o(.bss) for __libspace_start
    maybetermalloc2.o(.emb_text) refers (Special) to term_alloc.o(.text) for _terminate_alloc
    h1_extend.o(.text) refers to h1_free.o(.text) for free
    h1_extend_mt.o(.text) refers to h1_free_mt.o(.text) for _free_internal
    isspace.o(.text) refers to rt_ctype_table.o(.text) for __rt_ctype_table
    _printf_fp_dec.o(.text) refers (Special) to usenofp.o(x$fpl$usenofp) for __I$use$fp
    _printf_fp_dec.o(.text) refers (Special) to lc_numeric_c.o(locale$$code) for _get_lc_numeric
    _printf_fp_dec.o(.text) refers to bigflt0.o(.text) for _btod_etento
    _printf_fp_dec.o(.text) refers to btod.o(CL$$btod_d2e) for _btod_d2e
    _printf_fp_dec.o(.text) refers to btod.o(CL$$btod_ediv) for _btod_ediv
    _printf_fp_dec.o(.text) refers to btod.o(CL$$btod_emul) for _btod_emul
    _printf_fp_dec.o(.text) refers to lludiv10.o(.text) for _ll_udiv10
    _printf_fp_dec.o(.text) refers to fpclassify.o(i.__ARM_fpclassify) for __ARM_fpclassify
    _printf_fp_dec.o(.text) refers to _printf_fp_infnan.o(.text) for _printf_fp_infnan
    _printf_fp_dec.o(.text) refers (Weak) to _printf_pad.o(.text) for _printf_pre_padding
    _printf_fp_dec.o(.text) refers (Weak) to _printf_pad.o(.text) for _printf_pre_padding
    _printf_fp_dec.o(.text) refers to rt_locale.o(.text) for __rt_locale
    _printf_fp_dec.o(.text) refers (Weak) to _printf_pad.o(.text) for _printf_post_padding
    _printf_fp_hex.o(.text) refers (Special) to usenofp.o(x$fpl$usenofp) for __I$use$fp
    _printf_fp_hex.o(.text) refers to fpclassify.o(i.__ARM_fpclassify) for __ARM_fpclassify
    _printf_fp_hex.o(.text) refers to _printf_fp_infnan.o(.text) for _printf_fp_infnan
    _printf_fp_hex.o(.text) refers (Weak) to _printf_pad.o(.text) for _printf_pre_padding
    _printf_fp_hex.o(.text) refers (Weak) to _printf_pad.o(.text) for _printf_pre_padding
    _printf_fp_hex.o(.text) refers (Weak) to _printf_pad.o(.text) for _printf_post_padding
    _printf_fp_hex.o(.text) refers to _printf_fp_hex.o(.constdata) for .constdata
    _printf_fp_hex.o(.constdata) refers (Special) to usenofp.o(x$fpl$usenofp) for __I$use$fp
    _printf_char.o(.text) refers (Weak) to _printf_str.o(.text) for _printf_str
    _printf_char_file_locked.o(.text) refers to _printf_char_common.o(.text) for _printf_char_common
    _printf_char_file_locked.o(.text) refers to fputc.o(i._fputc$unlocked) for _fputc$unlocked
    _printf_wchar.o(.text) refers (Weak) to _printf_wctomb.o(.text) for _printf_wctomb
    _scanf.o(.text) refers (Weak) to scanf1.o(x$fpl$scanf1) for _scanf_real
    _scanf.o(.text) refers (Weak) to _scanf_longlong.o(.text) for _scanf_longlong
    _scanf.o(.text) refers (Weak) to _scanf_int.o(.text) for _scanf_int
    _scanf.o(.text) refers (Weak) to _scanf_wstr.o(.text) for _scanf_wstring
    _scanf.o(.text) refers (Weak) to _scanf_mbtowc.o(.text) for _scanf_mbtowc
    _scanf.o(.text) refers (Weak) to _scanf_str.o(.text) for _scanf_string
    _scanf.o(.text) refers (Weak) to _scanf_wctomb.o(.text) for _scanf_wctomb
    scanf_fp.o(.text) refers (Special) to usenofp.o(x$fpl$usenofp) for __I$use$fp
    scanf_fp.o(.text) refers (Special) to lc_numeric_c.o(locale$$code) for _get_lc_numeric
    scanf_fp.o(.text) refers to rt_errno_addr.o(.text) for __aeabi_errno_addr
    scanf_fp.o(.text) refers to bigflt0.o(.text) for _btod_etento
    scanf_fp.o(.text) refers to btod.o(CL$$btod_emuld) for _btod_emuld
    scanf_fp.o(.text) refers to btod.o(CL$$btod_edivd) for _btod_edivd
    scanf_fp.o(.text) refers to rt_locale.o(.text) for __rt_locale
    scanf_fp.o(.text) refers to scanf2.o(x$fpl$scanf2) for _scanf_infnan
    scanf_fp.o(.text) refers to __printf_wp.o(i._is_digit) for _is_digit
    scanf_fp.o(.text) refers to narrow.o(i.__mathlib_narrow) for __mathlib_narrow
    scanf_fp.o(.text) refers to fpconst.o(c$$dinf) for __huge_val
    scanf_char_file_locked.o(.text) refers to scanf_char.o(.text) for __vfscanf_char
    scanf_char_file_locked.o(.text) refers to fgetc.o(i._fgetc$unlocked) for _fgetc$unlocked
    scanf_char_file_locked.o(.text) refers to backspace.o(.text) for ___backspace$unlocked
    backspace.o(.text) refers to ungetc.o(.text) for _ungetc_internal
    ftell.o(.text) refers to rt_errno_addr.o(.text) for __aeabi_errno_addr
    freadfast.o(.text) refers to filbuf.o(.text) for _readbuf
    freadfast.o(.text) refers to rt_memcpy_v6.o(.text) for __aeabi_memcpy
    fread_bytes_avail.o(.text) refers to filbuf.o(.text) for __filbuf_byte
    fread_bytes_avail.o(.text) refers to rt_memcpy_v6.o(.text) for __aeabi_memcpy
    fwritefast.o(.text) refers to stdio.o(.text) for _writebuf
    fwritefast.o(.text) refers to flsbuf.o(.text) for __flsbuf_byte
    fwritefast.o(.text) refers to rt_memcpy_v6.o(.text) for __aeabi_memcpy
    flushlinebuffered.o(.text) refers to fflush.o(.text) for _do_fflush
    flushlinebuffered.o(.text) refers to stdio_streams.o(.bss) for __stdin
    freadfast_locked.o(.text) refers to filbuf.o(.text) for _readbuf
    freadfast_locked.o(.text) refers to rt_memcpy_v6.o(.text) for __aeabi_memcpy
    fread_bytes_avail_locked.o(.text) refers to filbuf.o(.text) for __filbuf_byte
    fread_bytes_avail_locked.o(.text) refers to rt_memcpy_v6.o(.text) for __aeabi_memcpy
    fwritefast_locked.o(.text) refers to stdio.o(.text) for _writebuf
    fwritefast_locked.o(.text) refers to flsbuf.o(.text) for __flsbuf_byte
    fwritefast_locked.o(.text) refers to rt_memcpy_v6.o(.text) for __aeabi_memcpy
    flushlinebuffered_locked.o(.text) refers to fflush.o(.text) for _do_fflush
    flushlinebuffered_locked.o(.text) refers to streamlock.o(.data) for _stream_list_lock
    flushlinebuffered_locked.o(.text) refers to stdio_streams.o(.bss) for __stdin
    _mbrtowc.o(.text) refers to rt_ctype_table.o(.text) for __rt_ctype_table
    _wcrtomb.o(.text) refers to rt_ctype_table.o(.text) for __rt_ctype_table
    defsig_exit.o(.text) refers to sys_exit.o(.text) for _sys_exit
    defsig_rtred_outer.o(.text) refers to defsig_rtred_inner.o(.text) for __rt_SIGRTRED_inner
    defsig_rtred_outer.o(.text) refers to defsig_exit.o(.text) for __sig_exit
    defsig_rtred_formal.o(.text) refers to rt_raise.o(.text) for __rt_raise
    defsig_rtmem_outer.o(.text) refers to defsig_rtmem_inner.o(.text) for __rt_SIGRTMEM_inner
    defsig_rtmem_outer.o(.text) refers to defsig_exit.o(.text) for __sig_exit
    defsig_rtmem_formal.o(.text) refers to rt_raise.o(.text) for __rt_raise
    defsig_pvfn_inner.o(.text) refers to defsig_general.o(.text) for __default_signal_display
    assert_stdio.o(.text) refers to fputs.o(.text) for fputs
    assert_stdio.o(.text) refers to fflush.o(.text) for fflush
    assert_stdio.o(.text) refers to stdio_streams.o(.bss) for __stderr
    heapauxa.o(.text) refers to heapauxa.o(.data) for .data
    heapauxmm.o(.text) refers to sdram.o(i.__rt_heap_extend) for __rt_heap_extend
    argv_veneer.o(.emb_text) refers to no_argv.o(.text) for __ARM_get_argv
    libshutdown2.o(.ARM.Collect$$libshutdown$$00000001) refers (Weak) to cxa_finalize.o(.text) for __cxa_finalize
    libshutdown2.o(.ARM.Collect$$libshutdown$$00000003) refers (Weak) to initio.o(.text) for _terminateio
    libshutdown2.o(.ARM.Collect$$libshutdown$$0000000D) refers (Weak) to term_alloc.o(.text) for _terminate_alloc
    arm_begincatch_noexceptions.o(.ARM.exidx) refers to arm_begincatch_noexceptions.o(.text) for .text
    bad_alloc_what.o(.ARM.exidx) refers to bad_alloc_what.o(i._ZNKSt9bad_alloc4whatEv) for i._ZNKSt9bad_alloc4whatEv
    exception_dtor.o(i._ZNSt9exceptionD0Ev) refers to delete.o(i._ZdlPv) for operator delete (void*)
    exception_dtor.o(.ARM.exidx) refers to exception_dtor.o(i._ZNSt9exceptionD1Ev) for i._ZNSt9exceptionD1Ev
    exception_dtor.o(.ARM.exidx) refers to exception_dtor.o(i._ZNSt9exceptionD0Ev) for i._ZNSt9exceptionD0Ev
    arm_exceptions_support.o(.text) refers to arm_exceptions_support.o(.constdata) for .constdata
    arm_exceptions_support.o(.ARM.exidx) refers to arm_exceptions_support.o(.text) for .text
    arm_exceptions_terminate.o(.text) refers to arm_exceptions_globs.o(.text) for __cxa_get_globals
    arm_exceptions_terminate.o(.text) refers to abort.o(.text) for abort
    arm_exceptions_terminate.o(.ARM.exidx) refers to arm_exceptions_terminate.o(.text) for .text
    arm_exceptions_globs.o(.text) refers to abort.o(.text) for abort
    arm_exceptions_globs.o(.text) refers to rt_eh_globals_addr.o(.text) for __rt_eh_globals_addr
    arm_exceptions_globs.o(.text) refers to h1_alloc.o(.text) for malloc
    arm_exceptions_globs.o(.text) refers to arm_exceptions_mem.o(.text) for __ARM_exceptions_buffer_init
    arm_exceptions_globs.o(.ARM.exidx) refers to arm_exceptions_globs.o(.text) for .text
    unwind_prcommon.o(.text) refers to unwinder.o(.text) for _Unwind_VRS_Get
    unwind_prcommon.o(.text) refers to unwind_activity.o(.emb_text) for _Unwind_Activity
    unwind_prcommon.o(.text) refers (Weak) to arm_callunex_noexceptions.o(.text) for __cxa_call_unexpected
    unwind_prcommon.o(.ARM.exidx) refers to unwind_prcommon.o(.text) for .text
    dfix.o(x$fpl$dfix) refers (Special) to usenofp.o(x$fpl$usenofp) for __I$use$fp
    dfix.o(x$fpl$dfix) refers to dnaninf.o(x$fpl$dnaninf) for __fpl_dnaninf
    dfix.o(x$fpl$dfixr) refers (Special) to usenofp.o(x$fpl$usenofp) for __I$use$fp
    dfix.o(x$fpl$dfixr) refers to dnaninf.o(x$fpl$dnaninf) for __fpl_dnaninf
    fabs.o(i.__hardfp_fabs) refers (Special) to usenofp.o(x$fpl$usenofp) for __I$use$fp
    fabs.o(i.__softfp_fabs) refers (Special) to usenofp.o(x$fpl$usenofp) for __I$use$fp
    fabs.o(i.fabs) refers (Special) to usenofp.o(x$fpl$usenofp) for __I$use$fp
    fpclassify.o(i.__ARM_fpclassify) refers (Special) to usenofp.o(x$fpl$usenofp) for __I$use$fp
    poly.o(i.__kernel_poly) refers (Special) to usenofp.o(x$fpl$usenofp) for __I$use$fp
    poly.o(i.__kernel_poly) refers to dmul.o(x$fpl$dmul) for __aeabi_dmul
    poly.o(i.__kernel_poly) refers to daddsub_clz.o(x$fpl$dadd) for __aeabi_dadd
    sys_exit.o(.text) refers (Special) to use_no_semi.o(.text) for __I$use$semihosting
    sys_exit.o(.text) refers (Special) to indicate_semi.o(.text) for __semihosting_library_function
    rt_ctype_table.o(.text) refers to rt_locale.o(.text) for __rt_locale
    rt_ctype_table.o(.text) refers to lc_ctype_c.o(locale$$code) for _get_lc_ctype
    rt_locale.o(.text) refers to rt_locale.o(.bss) for __rt_locale_data
    rt_locale_intlibspace.o(.text) refers to libspace.o(.bss) for __libspace_start
    rt_eh_globals_addr.o(.text) refers to rt_eh_globals_addr.o(.bss) for __rt_eh_globals_addr_data
    rt_eh_globals_addr_intlibspace.o(.text) refers to libspace.o(.bss) for __libspace_start
    term_alloc.o(.text) refers (Special) to libshutdown2.o(.ARM.Collect$$libshutdown$$0000000F) for __rt_lib_shutdown_heap_2
    term_alloc.o(.text) refers to rt_heap_descriptor.o(.text) for __rt_heap_descriptor
    term_alloc.o(.text) refers to h1_final.o(.text) for __Heap_Finalize
    _printf_fp_infnan.o(.text) refers (Weak) to _printf_pad.o(.text) for _printf_pre_padding
    _printf_fp_infnan.o(.text) refers (Weak) to _printf_pad.o(.text) for _printf_post_padding
    bigflt0.o(.text) refers (Special) to usenofp.o(x$fpl$usenofp) for __I$use$fp
    bigflt0.o(.text) refers to btod.o(CL$$btod_emul) for _btod_emul
    bigflt0.o(.text) refers to btod.o(CL$$btod_ediv) for _btod_ediv
    bigflt0.o(.text) refers to bigflt0.o(.constdata) for .constdata
    bigflt0.o(.constdata) refers (Special) to usenofp.o(x$fpl$usenofp) for __I$use$fp
    btod.o(CL$$btod_d2e) refers (Special) to usenofp.o(x$fpl$usenofp) for __I$use$fp
    btod.o(CL$$btod_d2e) refers to btod.o(CL$$btod_d2e_norm_op1) for _d2e_norm_op1
    btod.o(CL$$btod_d2e_norm_op1) refers (Special) to usenofp.o(x$fpl$usenofp) for __I$use$fp
    btod.o(CL$$btod_d2e_norm_op1) refers to btod.o(CL$$btod_d2e_denorm_low) for _d2e_denorm_low
    btod.o(CL$$btod_d2e_denorm_low) refers (Special) to usenofp.o(x$fpl$usenofp) for __I$use$fp
    btod.o(CL$$btod_emul) refers (Special) to usenofp.o(x$fpl$usenofp) for __I$use$fp
    btod.o(CL$$btod_emul) refers to btod.o(CL$$btod_mult_common) for __btod_mult_common
    btod.o(CL$$btod_emul) refers to btod.o(CL$$btod_e2e) for _e2e
    btod.o(CL$$btod_ediv) refers (Special) to usenofp.o(x$fpl$usenofp) for __I$use$fp
    btod.o(CL$$btod_ediv) refers to btod.o(CL$$btod_div_common) for __btod_div_common
    btod.o(CL$$btod_ediv) refers to btod.o(CL$$btod_e2e) for _e2e
    btod.o(CL$$btod_emuld) refers (Special) to usenofp.o(x$fpl$usenofp) for __I$use$fp
    btod.o(CL$$btod_emuld) refers to btod.o(CL$$btod_mult_common) for __btod_mult_common
    btod.o(CL$$btod_emuld) refers to btod.o(CL$$btod_e2d) for _e2d
    btod.o(CL$$btod_edivd) refers (Special) to usenofp.o(x$fpl$usenofp) for __I$use$fp
    btod.o(CL$$btod_edivd) refers to btod.o(CL$$btod_div_common) for __btod_div_common
    btod.o(CL$$btod_edivd) refers to btod.o(CL$$btod_e2d) for _e2d
    btod.o(CL$$btod_e2e) refers (Special) to usenofp.o(x$fpl$usenofp) for __I$use$fp
    btod.o(CL$$btod_e2d) refers (Special) to usenofp.o(x$fpl$usenofp) for __I$use$fp
    btod.o(CL$$btod_e2d) refers to btod.o(CL$$btod_e2e) for _e2e
    btod.o(CL$$btod_mult_common) refers (Special) to usenofp.o(x$fpl$usenofp) for __I$use$fp
    btod.o(CL$$btod_div_common) refers (Special) to usenofp.o(x$fpl$usenofp) for __I$use$fp
    lc_numeric_c.o(locale$$data) refers (Special) to libinit2.o(.ARM.Collect$$libinit$$00000016) for __rt_lib_init_lc_numeric_2
    lc_numeric_c.o(locale$$code) refers (Special) to libinit2.o(.ARM.Collect$$libinit$$00000016) for __rt_lib_init_lc_numeric_2
    lc_numeric_c.o(locale$$code) refers to strcmpv7m.o(.text) for strcmp
    lc_numeric_c.o(locale$$code) refers to lc_numeric_c.o(locale$$data) for __lcnum_c_name
    abort.o(.text) refers to defsig_abrt_outer.o(.text) for __rt_SIGABRT
    abort.o(.text) refers to sys_exit.o(.text) for _sys_exit
    __raise.o(.text) refers to defsig.o(CL$$defsig) for __default_signal_handler
    defsig_general.o(.text) refers to sys_wrch.o(.text) for _ttywrch
    defsig_rtred_inner.o(.text) refers to defsig_general.o(.text) for __default_signal_display
    defsig_rtmem_inner.o(.text) refers to defsig_general.o(.text) for __default_signal_display
    _get_argv_nomalloc.o(.text) refers (Special) to hrguard.o(.text) for __heap_region$guard
    _get_argv_nomalloc.o(.text) refers to defsig_rtmem_outer.o(.text) for __rt_SIGRTMEM
    _get_argv_nomalloc.o(.text) refers to retarget.o(i._sys_command_string) for _sys_command_string
    libinit.o(.ARM.Collect$$libinit$$00000000) refers (Special) to libinit2.o(.ARM.Collect$$libinit$$0000002E) for __rt_lib_init_alloca_1
    libinit.o(.ARM.Collect$$libinit$$00000000) refers (Special) to libinit2.o(.ARM.Collect$$libinit$$0000002C) for __rt_lib_init_argv_1
    libinit.o(.ARM.Collect$$libinit$$00000000) refers (Special) to libinit2.o(.ARM.Collect$$libinit$$0000001B) for __rt_lib_init_atexit_1
    libinit.o(.ARM.Collect$$libinit$$00000000) refers (Special) to libinit2.o(.ARM.Collect$$libinit$$00000021) for __rt_lib_init_clock_1
    libinit.o(.ARM.Collect$$libinit$$00000000) refers (Special) to libinit2.o(.ARM.Collect$$libinit$$00000032) for __rt_lib_init_cpp_1
    libinit.o(.ARM.Collect$$libinit$$00000000) refers (Special) to libinit2.o(.ARM.Collect$$libinit$$00000030) for __rt_lib_init_exceptions_1
    libinit.o(.ARM.Collect$$libinit$$00000000) refers (Special) to libinit2.o(.ARM.Collect$$libinit$$00000001) for __rt_lib_init_fp_1
    libinit.o(.ARM.Collect$$libinit$$00000000) refers (Special) to libinit2.o(.ARM.Collect$$libinit$$0000001F) for __rt_lib_init_fp_trap_1
    libinit.o(.ARM.Collect$$libinit$$00000000) refers (Special) to libinit2.o(.ARM.Collect$$libinit$$00000023) for __rt_lib_init_getenv_1
    libinit.o(.ARM.Collect$$libinit$$00000000) refers (Special) to libinit2.o(.ARM.Collect$$libinit$$0000000A) for __rt_lib_init_heap_1
    libinit.o(.ARM.Collect$$libinit$$00000000) refers (Special) to libinit2.o(.ARM.Collect$$libinit$$00000011) for __rt_lib_init_lc_collate_1
    libinit.o(.ARM.Collect$$libinit$$00000000) refers (Special) to libinit2.o(.ARM.Collect$$libinit$$00000013) for __rt_lib_init_lc_ctype_1
    libinit.o(.ARM.Collect$$libinit$$00000000) refers (Special) to libinit2.o(.ARM.Collect$$libinit$$00000015) for __rt_lib_init_lc_monetary_1
    libinit.o(.ARM.Collect$$libinit$$00000000) refers (Special) to libinit2.o(.ARM.Collect$$libinit$$00000017) for __rt_lib_init_lc_numeric_1
    libinit.o(.ARM.Collect$$libinit$$00000000) refers (Special) to libinit2.o(.ARM.Collect$$libinit$$00000019) for __rt_lib_init_lc_time_1
    libinit.o(.ARM.Collect$$libinit$$00000000) refers (Special) to libinit2.o(.ARM.Collect$$libinit$$00000004) for __rt_lib_init_preinit_1
    libinit.o(.ARM.Collect$$libinit$$00000000) refers (Special) to libinit2.o(.ARM.Collect$$libinit$$0000000E) for __rt_lib_init_rand_1
    libinit.o(.ARM.Collect$$libinit$$00000000) refers (Special) to libinit2.o(.ARM.Collect$$libinit$$00000033) for __rt_lib_init_return
    libinit.o(.ARM.Collect$$libinit$$00000000) refers (Special) to libinit2.o(.ARM.Collect$$libinit$$0000001D) for __rt_lib_init_signal_1
    libinit.o(.ARM.Collect$$libinit$$00000000) refers (Special) to libinit2.o(.ARM.Collect$$libinit$$00000025) for __rt_lib_init_stdio_1
    libinit.o(.ARM.Collect$$libinit$$00000000) refers (Special) to libinit2.o(.ARM.Collect$$libinit$$0000000C) for __rt_lib_init_user_alloc_1
    exception_what.o(.ARM.exidx) refers to exception_what.o(i._ZNKSt9exception4whatEv) for i._ZNKSt9exception4whatEv
    arm_exceptions_mem.o(.text) refers to h1_alloc.o(.text) for malloc
    arm_exceptions_mem.o(.ARM.exidx) refers to arm_exceptions_mem.o(.text) for .text
    unwinder.o(.emb_text) refers to unwinder.o(.text) for __ARM_Unwind_RaiseException
    unwinder.o(.text) refers to bsearchnoex.o(.text) for bsearch
    unwinder.o(.text) refers to unwind_activity.o(.emb_text) for _Unwind_Activity
    unwinder.o(.text) refers to abort.o(.text) for abort
    unwinder.o(.text) refers to unwinder.o(.emb_text) for __ARM_Unwind_VRS_corerestore
    unwinder.o(.text) refers to h1_alloc.o(.text) for malloc
    unwinder.o(.text) refers to rt_memcpy_w.o(.text) for __aeabi_memcpy4
    unwinder.o(.text) refers to h1_free.o(.text) for free
    unwinder.o(.text) refers (Weak) to unwind_pr0.o(.text) for __aeabi_unwind_cpp_pr0
    unwinder.o(.ARM.exidx) refers to unwinder.o(.text) for .text
    fpconst.o(c$$dinf) refers (Special) to usenofp.o(x$fpl$usenofp) for __I$use$fp
    fpconst.o(c$$dnan) refers (Special) to usenofp.o(x$fpl$usenofp) for __I$use$fp
    fpconst.o(c$$finf) refers (Special) to usenofp.o(x$fpl$usenofp) for __I$use$fp
    istatus.o(x$fpl$ieeestatus) refers (Special) to usenofp.o(x$fpl$usenofp) for __I$use$fp
    scanf2.o(x$fpl$scanf2) refers to scanf_hexfp.o(.text) for _scanf_really_hex_real
    scanf2.o(x$fpl$scanf2) refers to scanf_infnan.o(.text) for _scanf_really_infnan
    scanf2b.o(x$fpl$scanf2) refers to scanf_hexfp.o(.text) for _scanf_really_hex_real
    scanf2b.o(x$fpl$scanf2) refers to scanf_infnan.o(.text) for _scanf_really_infnan
    narrow.o(i.__hardfp___mathlib_tofloat) refers (Special) to usenofp.o(x$fpl$usenofp) for __I$use$fp
    narrow.o(i.__hardfp___mathlib_tofloat) refers to frexp.o(i.frexp) for frexp
    narrow.o(i.__hardfp___mathlib_tofloat) refers to deqf.o(x$fpl$deqf) for __aeabi_cdcmpeq
    narrow.o(i.__hardfp___mathlib_tofloat) refers to d2f.o(x$fpl$d2f) for __aeabi_d2f
    narrow.o(i.__hardfp___mathlib_tofloat) refers to _rserrno.o(.text) for __set_errno
    narrow.o(i.__hardfp___mathlib_tofloat) refers to drleqf.o(x$fpl$drleqf) for __aeabi_cdrcmple
    narrow.o(i.__mathlib_narrow) refers (Special) to usenofp.o(x$fpl$usenofp) for __I$use$fp
    narrow.o(i.__mathlib_narrow) refers to frexp.o(i.frexp) for frexp
    narrow.o(i.__mathlib_narrow) refers to deqf.o(x$fpl$deqf) for __aeabi_cdcmpeq
    narrow.o(i.__mathlib_narrow) refers to d2f.o(x$fpl$d2f) for __aeabi_d2f
    narrow.o(i.__mathlib_narrow) refers to _rserrno.o(.text) for __set_errno
    narrow.o(i.__mathlib_narrow) refers to drleqf.o(x$fpl$drleqf) for __aeabi_cdrcmple
    narrow.o(i.__mathlib_tofloat) refers (Special) to usenofp.o(x$fpl$usenofp) for __I$use$fp
    narrow.o(i.__mathlib_tofloat) refers to frexp.o(i.frexp) for frexp
    narrow.o(i.__mathlib_tofloat) refers to deqf.o(x$fpl$deqf) for __aeabi_cdcmpeq
    narrow.o(i.__mathlib_tofloat) refers to d2f.o(x$fpl$d2f) for __aeabi_d2f
    narrow.o(i.__mathlib_tofloat) refers to _rserrno.o(.text) for __set_errno
    narrow.o(i.__mathlib_tofloat) refers to drleqf.o(x$fpl$drleqf) for __aeabi_cdrcmple
    narrow.o(i.__softfp___mathlib_tofloat) refers (Special) to usenofp.o(x$fpl$usenofp) for __I$use$fp
    narrow.o(i.__softfp___mathlib_tofloat) refers to frexp.o(i.frexp) for frexp
    narrow.o(i.__softfp___mathlib_tofloat) refers to deqf.o(x$fpl$deqf) for __aeabi_cdcmpeq
    narrow.o(i.__softfp___mathlib_tofloat) refers to d2f.o(x$fpl$d2f) for __aeabi_d2f
    narrow.o(i.__softfp___mathlib_tofloat) refers to _rserrno.o(.text) for __set_errno
    narrow.o(i.__softfp___mathlib_tofloat) refers to drleqf.o(x$fpl$drleqf) for __aeabi_cdrcmple
    sys_wrch.o(.text) refers (Special) to use_no_semi.o(.text) for __I$use$semihosting
    sys_wrch.o(.text) refers (Special) to indicate_semi.o(.text) for __semihosting_library_function
    scanf_hexfp.o(.text) refers to _chval.o(.text) for _chval
    scanf_hexfp.o(.text) refers to llshl.o(.text) for __aeabi_llsl
    scanf_hexfp.o(.text) refers to ldexp.o(i.__support_ldexp) for __support_ldexp
    scanf_hexfp.o(.text) refers to narrow.o(i.__mathlib_narrow) for __mathlib_narrow
    lc_ctype_c.o(locale$$data) refers (Special) to libinit2.o(.ARM.Collect$$libinit$$00000012) for __rt_lib_init_lc_ctype_2
    lc_ctype_c.o(locale$$code) refers (Special) to libinit2.o(.ARM.Collect$$libinit$$00000012) for __rt_lib_init_lc_ctype_2
    lc_ctype_c.o(locale$$code) refers to strcmpv7m.o(.text) for strcmp
    lc_ctype_c.o(locale$$code) refers to lc_ctype_c.o(locale$$data) for __lcctype_c_name
    defsig_abrt_outer.o(.text) refers to defsig_abrt_inner.o(.text) for __rt_SIGABRT_inner
    defsig_abrt_outer.o(.text) refers to defsig_exit.o(.text) for __sig_exit
    defsig_abrt_formal.o(.text) refers to rt_raise.o(.text) for __rt_raise
    defsig.o(CL$$defsig) refers to defsig_abrt_inner.o(.text) for __rt_SIGABRT_inner
    defsig.o(CL$$defsig) refers to defsig_rtred_inner.o(.text) for __rt_SIGRTRED_inner
    defsig.o(CL$$defsig) refers to defsig_rtmem_inner.o(.text) for __rt_SIGRTMEM_inner
    defsig.o(CL$$defsig) refers to defsig_pvfn_inner.o(.text) for __rt_SIGPVFN_inner
    frexp.o(i.__hardfp_frexp) refers (Special) to usenofp.o(x$fpl$usenofp) for __I$use$fp
    frexp.o(i.__hardfp_frexp) refers to dmul.o(x$fpl$dmul) for __aeabi_dmul
    frexp.o(i.__softfp_frexp) refers (Special) to usenofp.o(x$fpl$usenofp) for __I$use$fp
    frexp.o(i.__softfp_frexp) refers to dmul.o(x$fpl$dmul) for __aeabi_dmul
    frexp.o(i.frexp) refers (Special) to usenofp.o(x$fpl$usenofp) for __I$use$fp
    frexp.o(i.frexp) refers to dmul.o(x$fpl$dmul) for __aeabi_dmul
    defsig_abrt_inner.o(.text) refers to defsig_general.o(.text) for __default_signal_display
    defsig_fpe_inner.o(.text) refers to defsig_general.o(.text) for __default_signal_display
    defsig_stak_inner.o(.text) refers to defsig_general.o(.text) for __default_signal_display
    defsig_cppl_inner.o(.text) refers to defsig_general.o(.text) for __default_signal_display
    defsig_segv_inner.o(.text) refers to defsig_general.o(.text) for __default_signal_display
    defsig_other.o(.text) refers to defsig_general.o(.text) for __default_signal_display
    ldexp.o(i.__hardfp_ldexp) refers (Special) to usenofp.o(x$fpl$usenofp) for __I$use$fp
    ldexp.o(i.__hardfp_ldexp) refers to deqf.o(x$fpl$deqf) for __aeabi_cdcmpeq
    ldexp.o(i.__hardfp_ldexp) refers to scalbn.o(x$fpl$scalbn) for __ARM_scalbn
    ldexp.o(i.__hardfp_ldexp) refers to _rserrno.o(.text) for __set_errno
    ldexp.o(i.__hardfp_ldexp) refers to dunder.o(i.__mathlib_dbl_underflow) for __mathlib_dbl_underflow
    ldexp.o(i.__hardfp_ldexp) refers to dunder.o(i.__mathlib_dbl_overflow) for __mathlib_dbl_overflow
    ldexp.o(i.__softfp_ldexp) refers (Special) to usenofp.o(x$fpl$usenofp) for __I$use$fp
    ldexp.o(i.__softfp_ldexp) refers to ldexp.o(i.__hardfp_ldexp) for __hardfp_ldexp
    ldexp.o(i.__support_ldexp) refers (Special) to usenofp.o(x$fpl$usenofp) for __I$use$fp
    ldexp.o(i.__support_ldexp) refers to ldexp.o(i.__hardfp_ldexp) for __hardfp_ldexp
    ldexp.o(i.ldexp) refers (Special) to usenofp.o(x$fpl$usenofp) for __I$use$fp
    ldexp.o(i.ldexp) refers to ldexp.o(i.__hardfp_ldexp) for __hardfp_ldexp
    ldexp_x.o(i.____hardfp_ldexp$lsc) refers (Special) to usenofp.o(x$fpl$usenofp) for __I$use$fp
    ldexp_x.o(i.____hardfp_ldexp$lsc) refers to deqf.o(x$fpl$deqf) for __aeabi_cdcmpeq
    ldexp_x.o(i.____hardfp_ldexp$lsc) refers to scalbn.o(x$fpl$scalbn) for __ARM_scalbn
    ldexp_x.o(i.____hardfp_ldexp$lsc) refers to _rserrno.o(.text) for __set_errno
    ldexp_x.o(i.____hardfp_ldexp$lsc) refers to qnan.o(.constdata) for __mathlib_zero
    ldexp_x.o(i.____softfp_ldexp$lsc) refers (Special) to usenofp.o(x$fpl$usenofp) for __I$use$fp
    ldexp_x.o(i.____softfp_ldexp$lsc) refers to ldexp_x.o(i.____hardfp_ldexp$lsc) for ____hardfp_ldexp$lsc
    ldexp_x.o(i.____support_ldexp$lsc) refers (Special) to usenofp.o(x$fpl$usenofp) for __I$use$fp
    ldexp_x.o(i.____support_ldexp$lsc) refers to ldexp_x.o(i.____hardfp_ldexp$lsc) for ____hardfp_ldexp$lsc
    ldexp_x.o(i.__ldexp$lsc) refers (Special) to usenofp.o(x$fpl$usenofp) for __I$use$fp
    ldexp_x.o(i.__ldexp$lsc) refers to ldexp_x.o(i.____hardfp_ldexp$lsc) for ____hardfp_ldexp$lsc
    scalbn.o(x$fpl$scalbn) refers (Special) to usenofp.o(x$fpl$usenofp) for __I$use$fp
    scalbn.o(x$fpl$scalbn) refers to dcheck1.o(x$fpl$dcheck1) for __fpl_dcheck_NaN1
    qnan.o(.constdata) refers (Special) to usenofp.o(x$fpl$usenofp) for __I$use$fp
    dcheck1.o(x$fpl$dcheck1) refers (Special) to usenofp.o(x$fpl$usenofp) for __I$use$fp
    dcheck1.o(x$fpl$dcheck1) refers to retnan.o(x$fpl$retnan) for __fpl_return_NaN
    retnan.o(x$fpl$retnan) refers (Special) to usenofp.o(x$fpl$usenofp) for __I$use$fp
    retnan.o(x$fpl$retnan) refers to trapv.o(x$fpl$trapveneer) for __fpl_cmpreturn
    trapv.o(x$fpl$trapveneer) refers (Special) to usenofp.o(x$fpl$usenofp) for __I$use$fp
    main.o(i._ZN4GameD1Ev) refers to physics.o(i._ZN7PhysicsD1Ev) for Physics::~Physics()
    main.o(i._ZN4GameD1Ev) refers to interface.o(i._ZN9InterfaceD1Ev) for Interface::~Interface()
    main.o(.ARM.exidx) refers to main.o(i._ZN4GameD1Ev) for i._ZN4GameD1Ev
    main.o(i._ZN4mbed9DigitalInC1E7PinName) refers to rt_memclr_w.o(.text) for __aeabi_memclr4
    main.o(i._ZN4mbed9DigitalInC1E7PinName) refers to gpio.o(i.gpio_init_in) for gpio_init_in
    main.o(.ARM.exidx) refers to main.o(i._ZN4mbed9DigitalInC1E7PinName) for i._ZN4mbed9DigitalInC1E7PinName
    vector.o(i._ZSt3sinf) refers to sinf.o(i.__hardfp_sinf) for __hardfp_sinf
    vector.o(.ARM.exidx) refers to vector.o(i._ZSt3sinf) for i._ZSt3sinf
    vector.o(i._ZSt3cosf) refers to cosf.o(i.__hardfp_cosf) for __hardfp_cosf
    vector.o(.ARM.exidx) refers to vector.o(i._ZSt3cosf) for i._ZSt3cosf
    game.o(i._ZN9BallArrayC1Ev) refers to aeabi_vec_ctor_nocookie_nodtor.o(i.__aeabi_vec_ctor_nocookie_nodtor) for __aeabi_vec_ctor_nocookie_nodtor
    game.o(i._ZN9BallArrayC1Ev) refers to game.o(i._ZN4BallC1Ev) for Ball::Ball()
    game.o(.ARM.exidx) refers to game.o(i._ZN9BallArrayC1Ev) for i._ZN9BallArrayC1Ev
    game.o(.ARM.exidx) refers to game.o(i._ZN13ExpandedTimerC1Ev) for i._ZN13ExpandedTimerC1Ev
    game.o(i._ZN4BallC1Ev) refers to vector.o(i._ZN6VectorC1Ev) for Vector::Vector()
    game.o(.ARM.exidx) refers to game.o(i._ZN4BallC1Ev) for i._ZN4BallC1Ev
    cue.o(.constdata__ZTV3Cue) refers to cue.o(.constdata__ZTI3Cue) for typeinfo for Cue
    cue.o(.constdata__ZTV3Cue) refers to cue.o(i._ZN3CueD1Ev) for Cue::~Cue()
    cue.o(.constdata__ZTV3Cue) refers to cue.o(i._ZN3CueD0Ev) for Cue::~Cue__deallocating()
    cue.o(.constdata__ZTI3Cue) refers to lib_rtti_impl.o(.constdata__ZTVN10__cxxabiv117__class_type_infoE) for vtable for __cxxabiv1::__class_type_info
    cue.o(.constdata__ZTI3Cue) refers to cue.o(.constdata__ZTS3Cue) for typeinfo name for Cue
    ethernet.o(.constdata__ZTVN4mbed8EthernetE) refers to ethernet.o(.constdata__ZTIN4mbed8EthernetE) for typeinfo for mbed::Ethernet
    ethernet.o(.constdata__ZTVN4mbed8EthernetE) refers to ethernet.o(i._ZN4mbed8EthernetD1Ev) for mbed::Ethernet::~Ethernet()
    ethernet.o(.constdata__ZTVN4mbed8EthernetE) refers to ethernet.o(i._ZN4mbed8EthernetD0Ev) for mbed::Ethernet::~Ethernet__deallocating()
    ethernet.o(.constdata__ZTIN4mbed8EthernetE) refers to lib_rtti_impl.o(.constdata__ZTVN10__cxxabiv117__class_type_infoE) for vtable for __cxxabiv1::__class_type_info
    ethernet.o(.constdata__ZTIN4mbed8EthernetE) refers to ethernet.o(.constdata__ZTSN4mbed8EthernetE) for typeinfo name for mbed::Ethernet
    stream.o(.constdata__ZTVN4mbed6StreamE) refers to stream.o(.constdata__ZTIN4mbed6StreamE) for typeinfo for mbed::Stream
    stream.o(.constdata__ZTVN4mbed6StreamE) refers to stream.o(i._ZN4mbed6Stream5writeEPKvj) for mbed::Stream::write(const void*, unsigned)
    stream.o(.constdata__ZTVN4mbed6StreamE) refers to stream.o(i._ZN4mbed6Stream5closeEv) for mbed::Stream::close()
    stream.o(.constdata__ZTVN4mbed6StreamE) refers to stream.o(i._ZN4mbed6Stream4readEPvj) for mbed::Stream::read(void*, unsigned)
    stream.o(.constdata__ZTVN4mbed6StreamE) refers to stream.o(i._ZN4mbed6Stream6isattyEv) for mbed::Stream::isatty()
    stream.o(.constdata__ZTVN4mbed6StreamE) refers to stream.o(i._ZN4mbed6Stream5lseekEli) for mbed::Stream::lseek(long, int)
    stream.o(.constdata__ZTVN4mbed6StreamE) refers to stream.o(i._ZN4mbed6Stream5fsyncEv) for mbed::Stream::fsync()
    stream.o(.constdata__ZTVN4mbed6StreamE) refers to stream.o(i._ZN4mbed6Stream4flenEv) for mbed::Stream::flen()
    stream.o(.constdata__ZTVN4mbed6StreamE) refers to stream.o(i._ZN4mbed6StreamD2Ev) for mbed::Stream::~Stream__sub_object()
    stream.o(.constdata__ZTVN4mbed6StreamE) refers to stream.o(i._ZN4mbed6StreamD0Ev) for mbed::Stream::~Stream__deallocating()
    stream.o(.constdata__ZTVN4mbed6StreamE) refers to pure_virt.o(i.__cxa_pure_virtual) for __cxa_pure_virtual
    stream.o(.constdata__ZTVN4mbed6StreamE) refers to stream.o(i._ZThn4_N4mbed6StreamD1Ev) for thunk{-4} to mbed::Stream::~Stream()
    stream.o(.constdata__ZTVN4mbed6StreamE) refers to stream.o(i._ZThn4_N4mbed6StreamD0Ev) for thunk{-4} to mbed::Stream::~Stream__deallocating()
    stream.o(.constdata__ZTIN4mbed6StreamE) refers to lib_rtti_impl.o(.constdata__ZTVN10__cxxabiv120__si_class_type_infoE) for vtable for __cxxabiv1::__si_class_type_info
    stream.o(.constdata__ZTIN4mbed6StreamE) refers to stream.o(.constdata__ZTSN4mbed6StreamE) for typeinfo name for mbed::Stream
    stream.o(.constdata__ZTIN4mbed6StreamE) refers to filelike.o(.constdata__ZTIN4mbed8FileLikeE) for typeinfo for mbed::FileLike
    adafruit_gfx.o(.constdata__ZTV12Adafruit_GFX) refers to adafruit_gfx.o(.constdata__ZTI12Adafruit_GFX) for typeinfo for Adafruit_GFX
    adafruit_gfx.o(.constdata__ZTV12Adafruit_GFX) refers to pure_virt.o(i.__cxa_pure_virtual) for __cxa_pure_virtual
    adafruit_gfx.o(.constdata__ZTV12Adafruit_GFX) refers to adafruit_gfx.o(i._ZN12Adafruit_GFX8drawLineEsssst) for Adafruit_GFX::drawLine(short, short, short, short, unsigned short)
    adafruit_gfx.o(.constdata__ZTV12Adafruit_GFX) refers to adafruit_gfx.o(i._ZN12Adafruit_GFX13drawFastVLineEssst) for Adafruit_GFX::drawFastVLine(short, short, short, unsigned short)
    adafruit_gfx.o(.constdata__ZTV12Adafruit_GFX) refers to adafruit_gfx.o(i._ZN12Adafruit_GFX13drawFastHLineEssst) for Adafruit_GFX::drawFastHLine(short, short, short, unsigned short)
    adafruit_gfx.o(.constdata__ZTV12Adafruit_GFX) refers to adafruit_gfx.o(i._ZN12Adafruit_GFX8drawRectEsssst) for Adafruit_GFX::drawRect(short, short, short, short, unsigned short)
    adafruit_gfx.o(.constdata__ZTV12Adafruit_GFX) refers to adafruit_gfx.o(i._ZN12Adafruit_GFX8fillRectEsssst) for Adafruit_GFX::fillRect(short, short, short, short, unsigned short)
    adafruit_gfx.o(.constdata__ZTV12Adafruit_GFX) refers to adafruit_gfx.o(i._ZN12Adafruit_GFX10fillScreenEt) for Adafruit_GFX::fillScreen(unsigned short)
    adafruit_gfx.o(.constdata__ZTV12Adafruit_GFX) refers to adafruit_gfx.o(i._ZN12Adafruit_GFX13invertDisplayEb) for Adafruit_GFX::invertDisplay(bool)
    adafruit_gfx.o(.constdata__ZTV12Adafruit_GFX) refers to adafruit_gfx.o(i._ZN12Adafruit_GFX5writeEh) for Adafruit_GFX::write(unsigned char)
    adafruit_gfx.o(.constdata__ZTI12Adafruit_GFX) refers to lib_rtti_impl.o(.constdata__ZTVN10__cxxabiv117__class_type_infoE) for vtable for __cxxabiv1::__class_type_info
    adafruit_gfx.o(.constdata__ZTI12Adafruit_GFX) refers to adafruit_gfx.o(.constdata__ZTS12Adafruit_GFX) for typeinfo name for Adafruit_GFX
    display.o(.constdata__ZTV7Display) refers to display.o(.constdata__ZTI7Display) for typeinfo for Display
    display.o(.constdata__ZTV7Display) refers to stream.o(i._ZN4mbed6Stream5writeEPKvj) for mbed::Stream::write(const void*, unsigned)
    display.o(.constdata__ZTV7Display) refers to stream.o(i._ZN4mbed6Stream5closeEv) for mbed::Stream::close()
    display.o(.constdata__ZTV7Display) refers to stream.o(i._ZN4mbed6Stream4readEPvj) for mbed::Stream::read(void*, unsigned)
    display.o(.constdata__ZTV7Display) refers to stream.o(i._ZN4mbed6Stream6isattyEv) for mbed::Stream::isatty()
    display.o(.constdata__ZTV7Display) refers to stream.o(i._ZN4mbed6Stream5lseekEli) for mbed::Stream::lseek(long, int)
    display.o(.constdata__ZTV7Display) refers to stream.o(i._ZN4mbed6Stream5fsyncEv) for mbed::Stream::fsync()
    display.o(.constdata__ZTV7Display) refers to stream.o(i._ZN4mbed6Stream4flenEv) for mbed::Stream::flen()
    display.o(.constdata__ZTV7Display) refers to display.o(i._ZN7DisplayD1Ev) for Display::~Display()
    display.o(.constdata__ZTV7Display) refers to display.o(i._ZN7DisplayD0Ev) for Display::~Display__deallocating()
    display.o(.constdata__ZTV7Display) refers to display.o(i._ZN7Display5_putcEi) for Display::_putc(int)
    display.o(.constdata__ZTV7Display) refers to display.o(i._ZN7Display5_getcEv) for Display::_getc()
    display.o(.constdata__ZTV7Display) refers to display.o(i._ZThn4_N7DisplayD1Ev) for thunk{-4} to Display::~Display()
    display.o(.constdata__ZTV7Display) refers to display.o(i._ZThn4_N7DisplayD0Ev) for thunk{-4} to Display::~Display__deallocating()
    display.o(.constdata__ZTV7Display) refers to gfxfb.o(i._ZN5GFXFb9drawPixelEsst) for GFXFb::drawPixel(short, short, unsigned short)
    display.o(.constdata__ZTV7Display) refers to adafruit_gfx.o(i._ZN12Adafruit_GFX8drawLineEsssst) for Adafruit_GFX::drawLine(short, short, short, short, unsigned short)
    display.o(.constdata__ZTV7Display) refers to gfxfb.o(i._ZN5GFXFb13drawFastVLineEssst) for GFXFb::drawFastVLine(short, short, short, unsigned short)
    display.o(.constdata__ZTV7Display) refers to gfxfb.o(i._ZN5GFXFb13drawFastHLineEssst) for GFXFb::drawFastHLine(short, short, short, unsigned short)
    display.o(.constdata__ZTV7Display) refers to adafruit_gfx.o(i._ZN12Adafruit_GFX8drawRectEsssst) for Adafruit_GFX::drawRect(short, short, short, short, unsigned short)
    display.o(.constdata__ZTV7Display) refers to adafruit_gfx.o(i._ZN12Adafruit_GFX8fillRectEsssst) for Adafruit_GFX::fillRect(short, short, short, short, unsigned short)
    display.o(.constdata__ZTV7Display) refers to gfxfb.o(i._ZN5GFXFb10fillScreenEt) for GFXFb::fillScreen(unsigned short)
    display.o(.constdata__ZTV7Display) refers to adafruit_gfx.o(i._ZN12Adafruit_GFX13invertDisplayEb) for Adafruit_GFX::invertDisplay(bool)
    display.o(.constdata__ZTV7Display) refers to adafruit_gfx.o(i._ZN12Adafruit_GFX5writeEh) for Adafruit_GFX::write(unsigned char)
    display.o(.ARM.exidx) refers to display.o(i._ZN13LcdController6ConfigC1EiiiiiiiibbbbiNS_12BitsPerPixelEiNS_8LcdPanelEb) for i._ZN13LcdController6ConfigC1EiiiiiiiibbbbiNS_12BitsPerPixelEiNS_8LcdPanelEb
    display.o(.constdata__ZTI7Display) refers to lib_rtti_impl.o(.constdata__ZTVN10__cxxabiv121__vmi_class_type_infoE) for vtable for __cxxabiv1::__vmi_class_type_info
    display.o(.constdata__ZTI7Display) refers to display.o(.constdata__ZTS7Display) for typeinfo name for Display
    display.o(.constdata__ZTI7Display) refers to stream.o(.constdata__ZTIN4mbed6StreamE) for typeinfo for mbed::Stream
    display.o(.constdata__ZTI7Display) refers to gfxfb.o(.constdata__ZTI5GFXFb) for typeinfo for GFXFb
    filelike.o(.constdata__ZTVN4mbed8FileLikeE) refers to filelike.o(.constdata__ZTIN4mbed8FileLikeE) for typeinfo for mbed::FileLike
    filelike.o(.constdata__ZTVN4mbed8FileLikeE) refers to pure_virt.o(i.__cxa_pure_virtual) for __cxa_pure_virtual
    filelike.o(.constdata__ZTVN4mbed8FileLikeE) refers to filelike.o(i._ZN4mbed10FileHandle4flenEv) for mbed::FileHandle::flen()
    filelike.o(.constdata__ZTVN4mbed8FileLikeE) refers to filelike.o(i._ZN4mbed8FileLikeD2Ev) for mbed::FileLike::~FileLike__sub_object()
    filelike.o(.constdata__ZTVN4mbed8FileLikeE) refers to filelike.o(i._ZN4mbed8FileLikeD0Ev) for mbed::FileLike::~FileLike__deallocating()
    filelike.o(.constdata__ZTVN4mbed8FileLikeE) refers to filelike.o(i._ZThn4_N4mbed8FileLikeD1Ev) for thunk{-4} to mbed::FileLike::~FileLike()
    filelike.o(.constdata__ZTVN4mbed8FileLikeE) refers to filelike.o(i._ZThn4_N4mbed8FileLikeD0Ev) for thunk{-4} to mbed::FileLike::~FileLike__deallocating()
    filelike.o(.ARM.exidx) refers to filelike.o(i._ZN4mbed10FileHandle4flenEv) for i._ZN4mbed10FileHandle4flenEv
    filelike.o(.constdata__ZTIN4mbed8FileLikeE) refers to lib_rtti_impl.o(.constdata__ZTVN10__cxxabiv121__vmi_class_type_infoE) for vtable for __cxxabiv1::__vmi_class_type_info
    filelike.o(.constdata__ZTIN4mbed8FileLikeE) refers to filelike.o(.constdata__ZTSN4mbed8FileLikeE) for typeinfo name for mbed::FileLike
    filelike.o(.constdata__ZTIN4mbed8FileLikeE) refers to retarget.o(.constdata__ZTIN4mbed10FileHandleE) for typeinfo for mbed::FileHandle
    filelike.o(.constdata__ZTIN4mbed8FileLikeE) refers to filebase.o(.constdata__ZTIN4mbed8FileBaseE) for typeinfo for mbed::FileBase
    retarget.o(.constdata__ZTVN4mbed10FileHandleE) refers to retarget.o(.constdata__ZTIN4mbed10FileHandleE) for typeinfo for mbed::FileHandle
    retarget.o(.constdata__ZTVN4mbed10FileHandleE) refers to pure_virt.o(i.__cxa_pure_virtual) for __cxa_pure_virtual
    retarget.o(.constdata__ZTVN4mbed10FileHandleE) refers to filelike.o(i._ZN4mbed10FileHandle4flenEv) for mbed::FileHandle::flen()
    retarget.o(.constdata__ZTVN4mbed10FileHandleE) refers to retarget.o(i._ZN4mbed10FileHandleD2Ev) for mbed::FileHandle::~FileHandle__sub_object()
    retarget.o(.constdata__ZTVN4mbed10FileHandleE) refers to retarget.o(i._ZN4mbed10FileHandleD0Ev) for mbed::FileHandle::~FileHandle__deallocating()
    retarget.o(.constdata__ZTIN4mbed10FileHandleE) refers to lib_rtti_impl.o(.constdata__ZTVN10__cxxabiv117__class_type_infoE) for vtable for __cxxabiv1::__class_type_info
    retarget.o(.constdata__ZTIN4mbed10FileHandleE) refers to retarget.o(.constdata__ZTSN4mbed10FileHandleE) for typeinfo name for mbed::FileHandle
    ealcdboardgpio.o(.constdata__ZTV14EaLcdBoardGPIO) refers to ealcdboardgpio.o(.constdata__ZTI14EaLcdBoardGPIO) for typeinfo for EaLcdBoardGPIO
    ealcdboardgpio.o(.constdata__ZTV14EaLcdBoardGPIO) refers to ealcdboardgpio.o(i._ZN14EaLcdBoardGPIO15setWriteProtectEb) for EaLcdBoardGPIO::setWriteProtect(bool)
    ealcdboardgpio.o(.constdata__ZTV14EaLcdBoardGPIO) refers to ealcdboardgpio.o(i._ZN14EaLcdBoardGPIO12set3V3SignalEb) for EaLcdBoardGPIO::set3V3Signal(bool)
    ealcdboardgpio.o(.constdata__ZTV14EaLcdBoardGPIO) refers to ealcdboardgpio.o(i._ZN14EaLcdBoardGPIO11set5VSignalEb) for EaLcdBoardGPIO::set5VSignal(bool)
    ealcdboardgpio.o(.constdata__ZTV14EaLcdBoardGPIO) refers to ealcdboardgpio.o(i._ZN14EaLcdBoardGPIO22setDisplayEnableSignalEb) for EaLcdBoardGPIO::setDisplayEnableSignal(bool)
    ealcdboardgpio.o(.constdata__ZTV14EaLcdBoardGPIO) refers to ealcdboardgpio.o(i._ZN14EaLcdBoardGPIO20setBacklightContrastEj) for EaLcdBoardGPIO::setBacklightContrast(unsigned)
    ealcdboardgpio.o(i._ZN4mbed10DigitalOutaSEi) refers to assert.o(i.mbed_assert_internal) for mbed_assert_internal
    ealcdboardgpio.o(i._ZN4mbed10DigitalOutaSEi) refers to ealcdboardgpio.o(.conststring) for .conststring
    ealcdboardgpio.o(.ARM.exidx) refers to ealcdboardgpio.o(i._ZN4mbed10DigitalOutaSEi) for i._ZN4mbed10DigitalOutaSEi
    ealcdboardgpio.o(i._ZN4mbed10DigitalOutC1E7PinName) refers to rt_memclr_w.o(.text) for __aeabi_memclr4
    ealcdboardgpio.o(i._ZN4mbed10DigitalOutC1E7PinName) refers to gpio.o(i.gpio_init_out) for gpio_init_out
    ealcdboardgpio.o(.ARM.exidx) refers to ealcdboardgpio.o(i._ZN4mbed10DigitalOutC1E7PinName) for i._ZN4mbed10DigitalOutC1E7PinName
    ealcdboardgpio.o(.constdata__ZTI14EaLcdBoardGPIO) refers to lib_rtti_impl.o(.constdata__ZTVN10__cxxabiv120__si_class_type_infoE) for vtable for __cxxabiv1::__si_class_type_info
    ealcdboardgpio.o(.constdata__ZTI14EaLcdBoardGPIO) refers to ealcdboardgpio.o(.constdata__ZTS14EaLcdBoardGPIO) for typeinfo name for EaLcdBoardGPIO
    ealcdboardgpio.o(.constdata__ZTI14EaLcdBoardGPIO) refers to ealcdboard.o(.constdata__ZTI10EaLcdBoard) for typeinfo for EaLcdBoard
    ealcdboard.o(.constdata__ZTV10EaLcdBoard) refers to ealcdboard.o(.constdata__ZTI10EaLcdBoard) for typeinfo for EaLcdBoard
    ealcdboard.o(.constdata__ZTV10EaLcdBoard) refers to ealcdboard.o(i._ZN10EaLcdBoard15setWriteProtectEb) for EaLcdBoard::setWriteProtect(bool)
    ealcdboard.o(.constdata__ZTV10EaLcdBoard) refers to ealcdboard.o(i._ZN10EaLcdBoard12set3V3SignalEb) for EaLcdBoard::set3V3Signal(bool)
    ealcdboard.o(.constdata__ZTV10EaLcdBoard) refers to ealcdboard.o(i._ZN10EaLcdBoard11set5VSignalEb) for EaLcdBoard::set5VSignal(bool)
    ealcdboard.o(.constdata__ZTV10EaLcdBoard) refers to ealcdboard.o(i._ZN10EaLcdBoard22setDisplayEnableSignalEb) for EaLcdBoard::setDisplayEnableSignal(bool)
    ealcdboard.o(.constdata__ZTV10EaLcdBoard) refers to ealcdboard.o(i._ZN10EaLcdBoard20setBacklightContrastEj) for EaLcdBoard::setBacklightContrast(unsigned)
    ealcdboard.o(.constdata__ZTI10EaLcdBoard) refers to lib_rtti_impl.o(.constdata__ZTVN10__cxxabiv117__class_type_infoE) for vtable for __cxxabiv1::__class_type_info
    ealcdboard.o(.constdata__ZTI10EaLcdBoard) refers to ealcdboard.o(.constdata__ZTS10EaLcdBoard) for typeinfo name for EaLcdBoard
    gfxfb.o(.constdata__ZTV5GFXFb) refers to gfxfb.o(.constdata__ZTI5GFXFb) for typeinfo for GFXFb
    gfxfb.o(.constdata__ZTV5GFXFb) refers to gfxfb.o(i._ZN5GFXFb9drawPixelEsst) for GFXFb::drawPixel(short, short, unsigned short)
    gfxfb.o(.constdata__ZTV5GFXFb) refers to adafruit_gfx.o(i._ZN12Adafruit_GFX8drawLineEsssst) for Adafruit_GFX::drawLine(short, short, short, short, unsigned short)
    gfxfb.o(.constdata__ZTV5GFXFb) refers to gfxfb.o(i._ZN5GFXFb13drawFastVLineEssst) for GFXFb::drawFastVLine(short, short, short, unsigned short)
    gfxfb.o(.constdata__ZTV5GFXFb) refers to gfxfb.o(i._ZN5GFXFb13drawFastHLineEssst) for GFXFb::drawFastHLine(short, short, short, unsigned short)
    gfxfb.o(.constdata__ZTV5GFXFb) refers to adafruit_gfx.o(i._ZN12Adafruit_GFX8drawRectEsssst) for Adafruit_GFX::drawRect(short, short, short, short, unsigned short)
    gfxfb.o(.constdata__ZTV5GFXFb) refers to adafruit_gfx.o(i._ZN12Adafruit_GFX8fillRectEsssst) for Adafruit_GFX::fillRect(short, short, short, short, unsigned short)
    gfxfb.o(.constdata__ZTV5GFXFb) refers to gfxfb.o(i._ZN5GFXFb10fillScreenEt) for GFXFb::fillScreen(unsigned short)
    gfxfb.o(.constdata__ZTV5GFXFb) refers to adafruit_gfx.o(i._ZN12Adafruit_GFX13invertDisplayEb) for Adafruit_GFX::invertDisplay(bool)
    gfxfb.o(.constdata__ZTV5GFXFb) refers to adafruit_gfx.o(i._ZN12Adafruit_GFX5writeEh) for Adafruit_GFX::write(unsigned char)
    gfxfb.o(.constdata__ZTI5GFXFb) refers to lib_rtti_impl.o(.constdata__ZTVN10__cxxabiv120__si_class_type_infoE) for vtable for __cxxabiv1::__si_class_type_info
    gfxfb.o(.constdata__ZTI5GFXFb) refers to gfxfb.o(.constdata__ZTS5GFXFb) for typeinfo name for GFXFb
    gfxfb.o(.constdata__ZTI5GFXFb) refers to adafruit_gfx.o(.constdata__ZTI12Adafruit_GFX) for typeinfo for Adafruit_GFX
    filebase.o(.constdata__ZTVN4mbed8FileBaseE) refers to filebase.o(.constdata__ZTIN4mbed8FileBaseE) for typeinfo for mbed::FileBase
    filebase.o(.constdata__ZTVN4mbed8FileBaseE) refers to filebase.o(i._ZN4mbed8FileBaseD1Ev) for mbed::FileBase::~FileBase()
    filebase.o(.constdata__ZTVN4mbed8FileBaseE) refers to filebase.o(i._ZN4mbed8FileBaseD0Ev) for mbed::FileBase::~FileBase__deallocating()
    filebase.o(.constdata__ZTIN4mbed8FileBaseE) refers to lib_rtti_impl.o(.constdata__ZTVN10__cxxabiv117__class_type_infoE) for vtable for __cxxabiv1::__class_type_info
    filebase.o(.constdata__ZTIN4mbed8FileBaseE) refers to filebase.o(.constdata__ZTSN4mbed8FileBaseE) for typeinfo name for mbed::FileBase
    filesystemlike.o(.constdata__ZTVN4mbed14FileSystemLikeE) refers to filesystemlike.o(.constdata__ZTIN4mbed14FileSystemLikeE) for typeinfo for mbed::FileSystemLike
    filesystemlike.o(.constdata__ZTVN4mbed14FileSystemLikeE) refers to filesystemlike.o(i._ZN4mbed14FileSystemLikeD2Ev) for mbed::FileSystemLike::~FileSystemLike__sub_object()
    filesystemlike.o(.constdata__ZTVN4mbed14FileSystemLikeE) refers to filesystemlike.o(i._ZN4mbed14FileSystemLikeD0Ev) for mbed::FileSystemLike::~FileSystemLike__deallocating()
    filesystemlike.o(.constdata__ZTVN4mbed14FileSystemLikeE) refers to pure_virt.o(i.__cxa_pure_virtual) for __cxa_pure_virtual
    filesystemlike.o(.constdata__ZTVN4mbed14FileSystemLikeE) refers to filesystemlike.o(i._ZN4mbed14FileSystemLike6removeEPKc) for mbed::FileSystemLike::remove(const char*)
    filesystemlike.o(.constdata__ZTVN4mbed14FileSystemLikeE) refers to filesystemlike.o(i._ZN4mbed14FileSystemLike6renameEPKcS2_) for mbed::FileSystemLike::rename(const char*, const char*)
    filesystemlike.o(.constdata__ZTVN4mbed14FileSystemLikeE) refers to filesystemlike.o(i._ZN4mbed14FileSystemLike7opendirEPKc) for mbed::FileSystemLike::opendir(const char*)
    filesystemlike.o(.constdata__ZTVN4mbed14FileSystemLikeE) refers to filesystemlike.o(i._ZN4mbed14FileSystemLike5mkdirEPKci) for mbed::FileSystemLike::mkdir(const char*, int)
    filesystemlike.o(.ARM.exidx) refers to filesystemlike.o(i._ZN4mbed14FileSystemLike6removeEPKc) for i._ZN4mbed14FileSystemLike6removeEPKc
    filesystemlike.o(.ARM.exidx) refers to filesystemlike.o(i._ZN4mbed14FileSystemLike6renameEPKcS2_) for i._ZN4mbed14FileSystemLike6renameEPKcS2_
    filesystemlike.o(.ARM.exidx) refers to filesystemlike.o(i._ZN4mbed14FileSystemLike7opendirEPKc) for i._ZN4mbed14FileSystemLike7opendirEPKc
    filesystemlike.o(.ARM.exidx) refers to filesystemlike.o(i._ZN4mbed14FileSystemLike5mkdirEPKci) for i._ZN4mbed14FileSystemLike5mkdirEPKci
    filesystemlike.o(.constdata__ZTVN4mbed9DirHandleE) refers to filesystemlike.o(.constdata__ZTIN4mbed9DirHandleE) for typeinfo for mbed::DirHandle
    filesystemlike.o(.constdata__ZTVN4mbed9DirHandleE) refers to pure_virt.o(i.__cxa_pure_virtual) for __cxa_pure_virtual
    filesystemlike.o(.constdata__ZTVN4mbed9DirHandleE) refers to filesystemlike.o(i._ZN4mbed9DirHandle7telldirEv) for mbed::DirHandle::telldir()
    filesystemlike.o(.constdata__ZTVN4mbed9DirHandleE) refers to filesystemlike.o(i._ZN4mbed9DirHandle7seekdirEl) for mbed::DirHandle::seekdir(long)
    filesystemlike.o(.constdata__ZTVN4mbed9DirHandleE) refers to filesystemlike.o(i._ZN4mbed9DirHandleD2Ev) for mbed::DirHandle::~DirHandle__sub_object()
    filesystemlike.o(.constdata__ZTVN4mbed9DirHandleE) refers to filesystemlike.o(i._ZN4mbed9DirHandleD0Ev) for mbed::DirHandle::~DirHandle__deallocating()
    filesystemlike.o(.constdata__ZTVN4mbed13BaseDirHandleE) refers to filesystemlike.o(.constdata__ZTIN4mbed13BaseDirHandleE) for typeinfo for mbed::BaseDirHandle
    filesystemlike.o(.constdata__ZTVN4mbed13BaseDirHandleE) refers to filesystemlike.o(i._ZN4mbed13BaseDirHandle8closedirEv) for mbed::BaseDirHandle::closedir()
    filesystemlike.o(.constdata__ZTVN4mbed13BaseDirHandleE) refers to filesystemlike.o(i._ZN4mbed13BaseDirHandle7readdirEv) for mbed::BaseDirHandle::readdir()
    filesystemlike.o(.constdata__ZTVN4mbed13BaseDirHandleE) refers to filesystemlike.o(i._ZN4mbed13BaseDirHandle9rewinddirEv) for mbed::BaseDirHandle::rewinddir()
    filesystemlike.o(.constdata__ZTVN4mbed13BaseDirHandleE) refers to filesystemlike.o(i._ZN4mbed13BaseDirHandle7telldirEv) for mbed::BaseDirHandle::telldir()
    filesystemlike.o(.constdata__ZTVN4mbed13BaseDirHandleE) refers to filesystemlike.o(i._ZN4mbed13BaseDirHandle7seekdirEl) for mbed::BaseDirHandle::seekdir(long)
    filesystemlike.o(.constdata__ZTVN4mbed13BaseDirHandleE) refers to filesystemlike.o(i._ZN4mbed13BaseDirHandleD1Ev) for mbed::BaseDirHandle::~BaseDirHandle()
    filesystemlike.o(.constdata__ZTVN4mbed13BaseDirHandleE) refers to filesystemlike.o(i._ZN4mbed13BaseDirHandleD0Ev) for mbed::BaseDirHandle::~BaseDirHandle__deallocating()
    filesystemlike.o(.constdata__ZTIN4mbed14FileSystemLikeE) refers to lib_rtti_impl.o(.constdata__ZTVN10__cxxabiv120__si_class_type_infoE) for vtable for __cxxabiv1::__si_class_type_info
    filesystemlike.o(.constdata__ZTIN4mbed14FileSystemLikeE) refers to filesystemlike.o(.constdata__ZTSN4mbed14FileSystemLikeE) for typeinfo name for mbed::FileSystemLike
    filesystemlike.o(.constdata__ZTIN4mbed14FileSystemLikeE) refers to filebase.o(.constdata__ZTIN4mbed8FileBaseE) for typeinfo for mbed::FileBase
    filesystemlike.o(.constdata__ZTIN4mbed13BaseDirHandleE) refers to lib_rtti_impl.o(.constdata__ZTVN10__cxxabiv120__si_class_type_infoE) for vtable for __cxxabiv1::__si_class_type_info
    filesystemlike.o(.constdata__ZTIN4mbed13BaseDirHandleE) refers to filesystemlike.o(.constdata__ZTSN4mbed13BaseDirHandleE) for typeinfo name for mbed::BaseDirHandle
    filesystemlike.o(.constdata__ZTIN4mbed13BaseDirHandleE) refers to filesystemlike.o(.constdata__ZTIN4mbed9DirHandleE) for typeinfo for mbed::DirHandle
    filesystemlike.o(.constdata__ZTIN4mbed9DirHandleE) refers to lib_rtti_impl.o(.constdata__ZTVN10__cxxabiv117__class_type_infoE) for vtable for __cxxabiv1::__class_type_info
    filesystemlike.o(.constdata__ZTIN4mbed9DirHandleE) refers to filesystemlike.o(.constdata__ZTSN4mbed9DirHandleE) for typeinfo name for mbed::DirHandle
    filesystemlike.o(.ARM.exidx) refers to filesystemlike.o(i._ZN4mbed9DirHandle7telldirEv) for i._ZN4mbed9DirHandle7telldirEv
    filesystemlike.o(.ARM.exidx) refers to filesystemlike.o(i._ZN4mbed9DirHandle7seekdirEl) for i._ZN4mbed9DirHandle7seekdirEl
    filesystemlike.o(.ARM.exidx) refers to filesystemlike.o(i._ZN4mbed9DirHandleD2Ev) for i._ZN4mbed9DirHandleD2Ev
    filesystemlike.o(i._ZN4mbed9DirHandleD0Ev) refers to delete.o(i._ZdlPv) for operator delete (void*)
    filesystemlike.o(.ARM.exidx) refers to filesystemlike.o(i._ZN4mbed9DirHandleD0Ev) for i._ZN4mbed9DirHandleD0Ev
    filesystemlike.o(.ARM.exidx) refers to filesystemlike.o(i._ZN4mbed13BaseDirHandle8closedirEv) for i._ZN4mbed13BaseDirHandle8closedirEv
    filesystemlike.o(i._ZN4mbed13BaseDirHandle7readdirEv) refers to filebase.o(i._ZN4mbed8FileBase3getEi) for mbed::FileBase::get(int)
    filesystemlike.o(i._ZN4mbed13BaseDirHandle7readdirEv) refers to filebase.o(i._ZN4mbed8FileBase7getNameEv) for mbed::FileBase::getName()
    filesystemlike.o(i._ZN4mbed13BaseDirHandle7readdirEv) refers to strncpy.o(.text) for strncpy
    filesystemlike.o(.ARM.exidx) refers to filesystemlike.o(i._ZN4mbed13BaseDirHandle7readdirEv) for i._ZN4mbed13BaseDirHandle7readdirEv
    filesystemlike.o(.ARM.exidx) refers to filesystemlike.o(i._ZN4mbed13BaseDirHandle7telldirEv) for i._ZN4mbed13BaseDirHandle7telldirEv
    filesystemlike.o(.ARM.exidx) refers to filesystemlike.o(i._ZN4mbed13BaseDirHandle7seekdirEl) for i._ZN4mbed13BaseDirHandle7seekdirEl
    filesystemlike.o(.ARM.exidx) refers to filesystemlike.o(i._ZN4mbed13BaseDirHandle9rewinddirEv) for i._ZN4mbed13BaseDirHandle9rewinddirEv
    filesystemlike.o(.ARM.exidx) refers to filesystemlike.o(i._ZN4mbed13BaseDirHandleD1Ev) for i._ZN4mbed13BaseDirHandleD1Ev
    filesystemlike.o(i._ZN4mbed13BaseDirHandleD0Ev) refers to filesystemlike.o(i._ZN4mbed13BaseDirHandleD1Ev) for mbed::BaseDirHandle::~BaseDirHandle()
    filesystemlike.o(i._ZN4mbed13BaseDirHandleD0Ev) refers to delete.o(i._ZdlPv) for operator delete (void*)
    filesystemlike.o(.ARM.exidx) refers to filesystemlike.o(i._ZN4mbed13BaseDirHandleD0Ev) for i._ZN4mbed13BaseDirHandleD0Ev
    i2c_api.o(i.i2c_start) refers to i2c_api.o(i.i2c_conclr) for i2c_conclr
    i2c_api.o(i.i2c_start) refers to i2c_api.o(i.i2c_conset) for i2c_conset
    i2c_api.o(i.i2c_start) refers to i2c_api.o(i.i2c_wait_SI) for i2c_wait_SI
    i2c_api.o(i.i2c_start) refers to i2c_api.o(i.i2c_status) for i2c_status
    i2c_api.o(i.i2c_stop) refers to i2c_api.o(i.i2c_conset) for i2c_conset
    i2c_api.o(i.i2c_stop) refers to i2c_api.o(i.i2c_clear_SI) for i2c_clear_SI
    lib_rtti_impl.o(.constdata__ZTVN10__cxxabiv123__fundamental_type_infoE) refers to lib_rtti_impl.o(.constdata__ZTIN10__cxxabiv123__fundamental_type_infoE) for typeinfo for __cxxabiv1::__fundamental_type_info
    lib_rtti_impl.o(.constdata__ZTVN10__cxxabiv123__fundamental_type_infoE) refers to lib_rtti_impl.o(i._ZN10__cxxabiv123__fundamental_type_infoD1Ev) for __cxxabiv1::__fundamental_type_info::~__fundamental_type_info()
    lib_rtti_impl.o(.constdata__ZTVN10__cxxabiv123__fundamental_type_infoE) refers to lib_rtti_impl.o(i._ZN10__cxxabiv123__fundamental_type_infoD0Ev) for __cxxabiv1::__fundamental_type_info::~__fundamental_type_info__deallocating()
    lib_rtti_impl.o(.constdata__ZTVN10__cxxabiv117__array_type_infoE) refers to lib_rtti_impl.o(.constdata__ZTIN10__cxxabiv117__array_type_infoE) for typeinfo for __cxxabiv1::__array_type_info
    lib_rtti_impl.o(.constdata__ZTVN10__cxxabiv117__array_type_infoE) refers to lib_rtti_impl.o(i._ZN10__cxxabiv117__array_type_infoD1Ev) for __cxxabiv1::__array_type_info::~__array_type_info()
    lib_rtti_impl.o(.constdata__ZTVN10__cxxabiv117__array_type_infoE) refers to lib_rtti_impl.o(i._ZN10__cxxabiv117__array_type_infoD0Ev) for __cxxabiv1::__array_type_info::~__array_type_info__deallocating()
    lib_rtti_impl.o(.constdata__ZTVN10__cxxabiv120__function_type_infoE) refers to lib_rtti_impl.o(.constdata__ZTIN10__cxxabiv120__function_type_infoE) for typeinfo for __cxxabiv1::__function_type_info
    lib_rtti_impl.o(.constdata__ZTVN10__cxxabiv120__function_type_infoE) refers to lib_rtti_impl.o(i._ZN10__cxxabiv120__function_type_infoD1Ev) for __cxxabiv1::__function_type_info::~__function_type_info()
    lib_rtti_impl.o(.constdata__ZTVN10__cxxabiv120__function_type_infoE) refers to lib_rtti_impl.o(i._ZN10__cxxabiv120__function_type_infoD0Ev) for __cxxabiv1::__function_type_info::~__function_type_info__deallocating()
    lib_rtti_impl.o(.constdata__ZTVN10__cxxabiv116__enum_type_infoE) refers to lib_rtti_impl.o(.constdata__ZTIN10__cxxabiv116__enum_type_infoE) for typeinfo for __cxxabiv1::__enum_type_info
    lib_rtti_impl.o(.constdata__ZTVN10__cxxabiv116__enum_type_infoE) refers to lib_rtti_impl.o(i._ZN10__cxxabiv116__enum_type_infoD1Ev) for __cxxabiv1::__enum_type_info::~__enum_type_info()
    lib_rtti_impl.o(.constdata__ZTVN10__cxxabiv116__enum_type_infoE) refers to lib_rtti_impl.o(i._ZN10__cxxabiv116__enum_type_infoD0Ev) for __cxxabiv1::__enum_type_info::~__enum_type_info__deallocating()
    lib_rtti_impl.o(.constdata__ZTVN10__cxxabiv117__class_type_infoE) refers to lib_rtti_impl.o(.constdata__ZTIN10__cxxabiv117__class_type_infoE) for typeinfo for __cxxabiv1::__class_type_info
    lib_rtti_impl.o(.constdata__ZTVN10__cxxabiv117__class_type_infoE) refers to lib_rtti_impl.o(i._ZN10__cxxabiv117__class_type_infoD1Ev) for __cxxabiv1::__class_type_info::~__class_type_info()
    lib_rtti_impl.o(.constdata__ZTVN10__cxxabiv117__class_type_infoE) refers to lib_rtti_impl.o(i._ZN10__cxxabiv117__class_type_infoD0Ev) for __cxxabiv1::__class_type_info::~__class_type_info__deallocating()
    lib_rtti_impl.o(.constdata__ZTVN10__cxxabiv120__si_class_type_infoE) refers to lib_rtti_impl.o(.constdata__ZTIN10__cxxabiv120__si_class_type_infoE) for typeinfo for __cxxabiv1::__si_class_type_info
    lib_rtti_impl.o(.constdata__ZTVN10__cxxabiv120__si_class_type_infoE) refers to lib_rtti_impl.o(i._ZN10__cxxabiv120__si_class_type_infoD1Ev) for __cxxabiv1::__si_class_type_info::~__si_class_type_info()
    lib_rtti_impl.o(.constdata__ZTVN10__cxxabiv120__si_class_type_infoE) refers to lib_rtti_impl.o(i._ZN10__cxxabiv120__si_class_type_infoD0Ev) for __cxxabiv1::__si_class_type_info::~__si_class_type_info__deallocating()
    lib_rtti_impl.o(.constdata__ZTVN10__cxxabiv121__vmi_class_type_infoE) refers to lib_rtti_impl.o(.constdata__ZTIN10__cxxabiv121__vmi_class_type_infoE) for typeinfo for __cxxabiv1::__vmi_class_type_info
    lib_rtti_impl.o(.constdata__ZTVN10__cxxabiv121__vmi_class_type_infoE) refers to lib_rtti_impl.o(i._ZN10__cxxabiv121__vmi_class_type_infoD1Ev) for __cxxabiv1::__vmi_class_type_info::~__vmi_class_type_info()
    lib_rtti_impl.o(.constdata__ZTVN10__cxxabiv121__vmi_class_type_infoE) refers to lib_rtti_impl.o(i._ZN10__cxxabiv121__vmi_class_type_infoD0Ev) for __cxxabiv1::__vmi_class_type_info::~__vmi_class_type_info__deallocating()
    lib_rtti_impl.o(.constdata__ZTVN10__cxxabiv117__pbase_type_infoE) refers to lib_rtti_impl.o(.constdata__ZTIN10__cxxabiv117__pbase_type_infoE) for typeinfo for __cxxabiv1::__pbase_type_info
    lib_rtti_impl.o(.constdata__ZTVN10__cxxabiv117__pbase_type_infoE) refers to lib_rtti_impl.o(i._ZN10__cxxabiv117__pbase_type_infoD1Ev) for __cxxabiv1::__pbase_type_info::~__pbase_type_info()
    lib_rtti_impl.o(.constdata__ZTVN10__cxxabiv117__pbase_type_infoE) refers to lib_rtti_impl.o(i._ZN10__cxxabiv117__pbase_type_infoD0Ev) for __cxxabiv1::__pbase_type_info::~__pbase_type_info__deallocating()
    lib_rtti_impl.o(.constdata__ZTVN10__cxxabiv119__pointer_type_infoE) refers to lib_rtti_impl.o(.constdata__ZTIN10__cxxabiv119__pointer_type_infoE) for typeinfo for __cxxabiv1::__pointer_type_info
    lib_rtti_impl.o(.constdata__ZTVN10__cxxabiv119__pointer_type_infoE) refers to lib_rtti_impl.o(i._ZN10__cxxabiv119__pointer_type_infoD1Ev) for __cxxabiv1::__pointer_type_info::~__pointer_type_info()
    lib_rtti_impl.o(.constdata__ZTVN10__cxxabiv119__pointer_type_infoE) refers to lib_rtti_impl.o(i._ZN10__cxxabiv119__pointer_type_infoD0Ev) for __cxxabiv1::__pointer_type_info::~__pointer_type_info__deallocating()
    lib_rtti_impl.o(.constdata__ZTVN10__cxxabiv129__pointer_to_member_type_infoE) refers to lib_rtti_impl.o(.constdata__ZTIN10__cxxabiv129__pointer_to_member_type_infoE) for typeinfo for __cxxabiv1::__pointer_to_member_type_info
    lib_rtti_impl.o(.constdata__ZTVN10__cxxabiv129__pointer_to_member_type_infoE) refers to lib_rtti_impl.o(i._ZN10__cxxabiv129__pointer_to_member_type_infoD1Ev) for __cxxabiv1::__pointer_to_member_type_info::~__pointer_to_member_type_info()
    lib_rtti_impl.o(.constdata__ZTVN10__cxxabiv129__pointer_to_member_type_infoE) refers to lib_rtti_impl.o(i._ZN10__cxxabiv129__pointer_to_member_type_infoD0Ev) for __cxxabiv1::__pointer_to_member_type_info::~__pointer_to_member_type_info__deallocating()
    lib_rtti_impl.o(.ARM.exidx) refers to lib_rtti_impl.o(i._ZNSt9type_infodlEPv) for i._ZNSt9type_infodlEPv
    lib_rtti_impl.o(.constdata__ZTIN10__cxxabiv123__fundamental_type_infoE) refers to lib_rtti_impl.o(.constdata__ZTVN10__cxxabiv120__si_class_type_infoE) for vtable for __cxxabiv1::__si_class_type_info
    lib_rtti_impl.o(.constdata__ZTIN10__cxxabiv123__fundamental_type_infoE) refers to lib_rtti_impl.o(.constdata__ZTSN10__cxxabiv123__fundamental_type_infoE) for typeinfo name for __cxxabiv1::__fundamental_type_info
    lib_rtti_impl.o(.constdata__ZTIN10__cxxabiv123__fundamental_type_infoE) refers to type_info_dtor.o(.constdata__ZTISt9type_info) for typeinfo for std::type_info
    lib_rtti_impl.o(.constdata__ZTIN10__cxxabiv117__array_type_infoE) refers to lib_rtti_impl.o(.constdata__ZTVN10__cxxabiv120__si_class_type_infoE) for vtable for __cxxabiv1::__si_class_type_info
    lib_rtti_impl.o(.constdata__ZTIN10__cxxabiv117__array_type_infoE) refers to lib_rtti_impl.o(.constdata__ZTSN10__cxxabiv117__array_type_infoE) for typeinfo name for __cxxabiv1::__array_type_info
    lib_rtti_impl.o(.constdata__ZTIN10__cxxabiv117__array_type_infoE) refers to type_info_dtor.o(.constdata__ZTISt9type_info) for typeinfo for std::type_info
    lib_rtti_impl.o(.constdata__ZTIN10__cxxabiv120__function_type_infoE) refers to lib_rtti_impl.o(.constdata__ZTVN10__cxxabiv120__si_class_type_infoE) for vtable for __cxxabiv1::__si_class_type_info
    lib_rtti_impl.o(.constdata__ZTIN10__cxxabiv120__function_type_infoE) refers to lib_rtti_impl.o(.constdata__ZTSN10__cxxabiv120__function_type_infoE) for typeinfo name for __cxxabiv1::__function_type_info
    lib_rtti_impl.o(.constdata__ZTIN10__cxxabiv120__function_type_infoE) refers to type_info_dtor.o(.constdata__ZTISt9type_info) for typeinfo for std::type_info
    lib_rtti_impl.o(.constdata__ZTIN10__cxxabiv116__enum_type_infoE) refers to lib_rtti_impl.o(.constdata__ZTVN10__cxxabiv120__si_class_type_infoE) for vtable for __cxxabiv1::__si_class_type_info
    lib_rtti_impl.o(.constdata__ZTIN10__cxxabiv116__enum_type_infoE) refers to lib_rtti_impl.o(.constdata__ZTSN10__cxxabiv116__enum_type_infoE) for typeinfo name for __cxxabiv1::__enum_type_info
    lib_rtti_impl.o(.constdata__ZTIN10__cxxabiv116__enum_type_infoE) refers to type_info_dtor.o(.constdata__ZTISt9type_info) for typeinfo for std::type_info
    lib_rtti_impl.o(.constdata__ZTIN10__cxxabiv117__class_type_infoE) refers to lib_rtti_impl.o(.constdata__ZTVN10__cxxabiv120__si_class_type_infoE) for vtable for __cxxabiv1::__si_class_type_info
    lib_rtti_impl.o(.constdata__ZTIN10__cxxabiv117__class_type_infoE) refers to lib_rtti_impl.o(.constdata__ZTSN10__cxxabiv117__class_type_infoE) for typeinfo name for __cxxabiv1::__class_type_info
    lib_rtti_impl.o(.constdata__ZTIN10__cxxabiv117__class_type_infoE) refers to type_info_dtor.o(.constdata__ZTISt9type_info) for typeinfo for std::type_info
    lib_rtti_impl.o(.constdata__ZTIN10__cxxabiv120__si_class_type_infoE) refers to lib_rtti_impl.o(.constdata__ZTVN10__cxxabiv120__si_class_type_infoE) for vtable for __cxxabiv1::__si_class_type_info
    lib_rtti_impl.o(.constdata__ZTIN10__cxxabiv120__si_class_type_infoE) refers to lib_rtti_impl.o(.constdata__ZTSN10__cxxabiv120__si_class_type_infoE) for typeinfo name for __cxxabiv1::__si_class_type_info
    lib_rtti_impl.o(.constdata__ZTIN10__cxxabiv120__si_class_type_infoE) refers to lib_rtti_impl.o(.constdata__ZTIN10__cxxabiv117__class_type_infoE) for typeinfo for __cxxabiv1::__class_type_info
    lib_rtti_impl.o(.constdata__ZTIN10__cxxabiv121__vmi_class_type_infoE) refers to lib_rtti_impl.o(.constdata__ZTVN10__cxxabiv120__si_class_type_infoE) for vtable for __cxxabiv1::__si_class_type_info
    lib_rtti_impl.o(.constdata__ZTIN10__cxxabiv121__vmi_class_type_infoE) refers to lib_rtti_impl.o(.constdata__ZTSN10__cxxabiv121__vmi_class_type_infoE) for typeinfo name for __cxxabiv1::__vmi_class_type_info
    lib_rtti_impl.o(.constdata__ZTIN10__cxxabiv121__vmi_class_type_infoE) refers to lib_rtti_impl.o(.constdata__ZTIN10__cxxabiv117__class_type_infoE) for typeinfo for __cxxabiv1::__class_type_info
    lib_rtti_impl.o(.constdata__ZTIN10__cxxabiv117__pbase_type_infoE) refers to lib_rtti_impl.o(.constdata__ZTVN10__cxxabiv120__si_class_type_infoE) for vtable for __cxxabiv1::__si_class_type_info
    lib_rtti_impl.o(.constdata__ZTIN10__cxxabiv117__pbase_type_infoE) refers to lib_rtti_impl.o(.constdata__ZTSN10__cxxabiv117__pbase_type_infoE) for typeinfo name for __cxxabiv1::__pbase_type_info
    lib_rtti_impl.o(.constdata__ZTIN10__cxxabiv117__pbase_type_infoE) refers to type_info_dtor.o(.constdata__ZTISt9type_info) for typeinfo for std::type_info
    lib_rtti_impl.o(.constdata__ZTIN10__cxxabiv119__pointer_type_infoE) refers to lib_rtti_impl.o(.constdata__ZTVN10__cxxabiv120__si_class_type_infoE) for vtable for __cxxabiv1::__si_class_type_info
    lib_rtti_impl.o(.constdata__ZTIN10__cxxabiv119__pointer_type_infoE) refers to lib_rtti_impl.o(.constdata__ZTSN10__cxxabiv119__pointer_type_infoE) for typeinfo name for __cxxabiv1::__pointer_type_info
    lib_rtti_impl.o(.constdata__ZTIN10__cxxabiv119__pointer_type_infoE) refers to lib_rtti_impl.o(.constdata__ZTIN10__cxxabiv117__pbase_type_infoE) for typeinfo for __cxxabiv1::__pbase_type_info
    lib_rtti_impl.o(.constdata__ZTIN10__cxxabiv129__pointer_to_member_type_infoE) refers to lib_rtti_impl.o(.constdata__ZTVN10__cxxabiv120__si_class_type_infoE) for vtable for __cxxabiv1::__si_class_type_info
    lib_rtti_impl.o(.constdata__ZTIN10__cxxabiv129__pointer_to_member_type_infoE) refers to lib_rtti_impl.o(.constdata__ZTSN10__cxxabiv129__pointer_to_member_type_infoE) for typeinfo name for __cxxabiv1::__pointer_to_member_type_info
    lib_rtti_impl.o(.constdata__ZTIN10__cxxabiv129__pointer_to_member_type_infoE) refers to lib_rtti_impl.o(.constdata__ZTIN10__cxxabiv117__pbase_type_infoE) for typeinfo for __cxxabiv1::__pbase_type_info
    lib_rtti_impl.o(i.__ARM_common_noexcept_landing) refers to arm_exceptions_callterm.o(.text) for __cxa_call_terminate
    lib_rtti_impl.o(.ARM.exidx) refers to lib_rtti_impl.o(i.__ARM_common_noexcept_landing) for i.__ARM_common_noexcept_landing
    bad_alloc_dtor.o(.constdata__ZTVSt9bad_alloc) refers to bad_alloc_dtor.o(.constdata__ZTISt9bad_alloc) for typeinfo for std::bad_alloc
    bad_alloc_dtor.o(.constdata__ZTVSt9bad_alloc) refers to bad_alloc_dtor.o(i._ZNSt9bad_allocD1Ev) for std::bad_alloc::~bad_alloc()
    bad_alloc_dtor.o(.constdata__ZTVSt9bad_alloc) refers to bad_alloc_dtor.o(i._ZNSt9bad_allocD0Ev) for std::bad_alloc::~bad_alloc__deallocating()
    bad_alloc_dtor.o(.constdata__ZTVSt9bad_alloc) refers to bad_alloc_what.o(i._ZNKSt9bad_alloc4whatEv) for std::bad_alloc::what() const
    bad_alloc_dtor.o(.constdata__ZTISt9bad_alloc) refers to lib_rtti_impl.o(.constdata__ZTVN10__cxxabiv120__si_class_type_infoE) for vtable for __cxxabiv1::__si_class_type_info
    bad_alloc_dtor.o(.constdata__ZTISt9bad_alloc) refers to bad_alloc_dtor.o(.constdata__ZTSSt9bad_alloc) for typeinfo name for std::bad_alloc
    bad_alloc_dtor.o(.constdata__ZTISt9bad_alloc) refers to exception_dtor.o(.constdata__ZTISt9exception) for typeinfo for std::exception
    type_info_dtor.o(.constdata__ZTVSt9type_info) refers to type_info_dtor.o(.constdata__ZTISt9type_info) for typeinfo for std::type_info
    type_info_dtor.o(.constdata__ZTVSt9type_info) refers to type_info_dtor.o(i._ZNSt9type_infoD1Ev) for std::type_info::~type_info()
    type_info_dtor.o(.constdata__ZTVSt9type_info) refers to type_info_dtor.o(i._ZNSt9type_infoD0Ev) for std::type_info::~type_info__deallocating()
    type_info_dtor.o(.constdata__ZTISt9type_info) refers to lib_rtti_impl.o(.constdata__ZTVN10__cxxabiv117__class_type_infoE) for vtable for __cxxabiv1::__class_type_info
    type_info_dtor.o(.constdata__ZTISt9type_info) refers to type_info_dtor.o(.constdata__ZTSSt9type_info) for typeinfo name for std::type_info
    exception_dtor.o(.constdata__ZTVSt9exception) refers to exception_dtor.o(.constdata__ZTISt9exception) for typeinfo for std::exception
    exception_dtor.o(.constdata__ZTVSt9exception) refers to exception_dtor.o(i._ZNSt9exceptionD1Ev) for std::exception::~exception()
    exception_dtor.o(.constdata__ZTVSt9exception) refers to exception_dtor.o(i._ZNSt9exceptionD0Ev) for std::exception::~exception__deallocating()
    exception_dtor.o(.constdata__ZTVSt9exception) refers to exception_what.o(i._ZNKSt9exception4whatEv) for std::exception::what() const
    exception_dtor.o(.constdata__ZTISt9exception) refers to lib_rtti_impl.o(.constdata__ZTVN10__cxxabiv117__class_type_infoE) for vtable for __cxxabiv1::__class_type_info
    exception_dtor.o(.constdata__ZTISt9exception) refers to exception_dtor.o(.constdata__ZTSSt9exception) for typeinfo name for std::exception


==============================================================================

Removing Unused input sections from the image.

    Removing main.o(.rev16_text), (4 bytes).
    Removing main.o(.revsh_text), (4 bytes).
    Removing main.o(i._Z7accInitR7MMA7455), (32 bytes).
    Removing main.o(.ARM.exidx), (8 bytes).
    Removing main.o(.ARM.exidx), (8 bytes).
    Removing main.o(.ARM.exidx), (8 bytes).
    Removing main.o(.ARM.exidx), (8 bytes).
    Removing main.o(.ARM.exidx), (8 bytes).
    Removing main.o(.ARM.exidx), (8 bytes).
    Removing matrix3x3.o(i._ZN9Matrix3x33detEv), (122 bytes).
    Removing matrix3x3.o(i._ZN9Matrix3x39TransposeEv), (84 bytes).
    Removing matrix3x3.o(i._ZN9Matrix3x3C1Efffffffff), (38 bytes).
    Removing matrix3x3.o(i._ZN9Matrix3x3C1Ev), (80 bytes).
    Removing matrix3x3.o(i._ZN9Matrix3x3dVEf), (110 bytes).
    Removing matrix3x3.o(i._ZN9Matrix3x3mIES_), (150 bytes).
    Removing matrix3x3.o(i._ZN9Matrix3x3mLEf), (110 bytes).
    Removing matrix3x3.o(i._ZN9Matrix3x3pLES_), (150 bytes).
    Removing matrix3x3.o(i._Zdv9Matrix3x3f), (178 bytes).
    Removing matrix3x3.o(i._ZmI9Matrix3x3S_), (162 bytes).
    Removing matrix3x3.o(i._Zml9Matrix3x3f), (134 bytes).
    Removing matrix3x3.o(i._Zmlf9Matrix3x3), (134 bytes).
    Removing matrix3x3.o(i._ZpL9Matrix3x3S_), (162 bytes).
    Removing matrix3x3.o(.ARM.exidx), (8 bytes).
    Removing matrix3x3.o(.ARM.exidx), (8 bytes).
    Removing matrix3x3.o(.ARM.exidx), (8 bytes).
    Removing matrix3x3.o(.ARM.exidx), (8 bytes).
    Removing matrix3x3.o(.ARM.exidx), (8 bytes).
    Removing matrix3x3.o(.ARM.exidx), (8 bytes).
    Removing matrix3x3.o(.ARM.exidx), (8 bytes).
    Removing matrix3x3.o(.ARM.exidx), (8 bytes).
    Removing matrix3x3.o(.ARM.exidx), (8 bytes).
    Removing matrix3x3.o(.ARM.exidx), (8 bytes).
    Removing matrix3x3.o(.ARM.exidx), (8 bytes).
    Removing matrix3x3.o(.ARM.exidx), (8 bytes).
    Removing matrix3x3.o(.ARM.exidx), (8 bytes).
    Removing vector.o(.ARM.exidx), (8 bytes).
    Removing vector.o(.ARM.exidx), (8 bytes).
    Removing vector.o(.ARM.exidx), (8 bytes).
    Removing vector.o(.ARM.exidx), (8 bytes).
    Removing vector.o(.ARM.exidx), (8 bytes).
    Removing vector.o(.ARM.exidx), (8 bytes).
    Removing vector.o(.ARM.exidx), (8 bytes).
    Removing vector.o(.ARM.exidx), (8 bytes).
    Removing vector.o(.ARM.exidx), (8 bytes).
    Removing vector.o(.ARM.exidx), (8 bytes).
    Removing vector.o(.ARM.exidx), (8 bytes).
    Removing vector.o(.ARM.exidx), (8 bytes).
    Removing vector.o(.ARM.exidx), (8 bytes).
    Removing vector.o(.ARM.exidx), (8 bytes).
    Removing vector.o(.ARM.exidx), (8 bytes).
    Removing ball.o(.rev16_text), (4 bytes).
    Removing ball.o(.revsh_text), (4 bytes).
    Removing ball.o(i._ZN4Ball11subPositionEP6Vector), (18 bytes).
    Removing ball.o(i._ZN4Ball11tradeYSpeedEPS_), (96 bytes).
    Removing ball.o(i._ZN4Ball12getLastAngleEv), (6 bytes).
    Removing ball.o(i._ZN4Ball8addSpeedEP6Vector), (18 bytes).
    Removing ball.o(i._ZN4Ball8subSpeedEP6Vector), (18 bytes).
    Removing ball.o(i._ZN9BallArray16getBlackPositionEv), (44 bytes).
    Removing ball.o(i._ZN9BallArray9ballsLeftEv), (40 bytes).
    Removing ball.o(.ARM.exidx), (8 bytes).
    Removing ball.o(.ARM.exidx), (8 bytes).
    Removing ball.o(.ARM.exidx), (8 bytes).
    Removing ball.o(.ARM.exidx), (8 bytes).
    Removing ball.o(.ARM.exidx), (8 bytes).
    Removing ball.o(.ARM.exidx), (8 bytes).
    Removing ball.o(.ARM.exidx), (8 bytes).
    Removing ball.o(.ARM.exidx), (8 bytes).
    Removing ball.o(.ARM.exidx), (8 bytes).
    Removing ball.o(.ARM.exidx), (8 bytes).
    Removing ball.o(.ARM.exidx), (8 bytes).
    Removing ball.o(.ARM.exidx), (8 bytes).
    Removing ball.o(.ARM.exidx), (8 bytes).
    Removing ball.o(.ARM.exidx), (8 bytes).
    Removing ball.o(.ARM.exidx), (8 bytes).
    Removing ball.o(.ARM.exidx), (8 bytes).
    Removing ball.o(.ARM.exidx), (8 bytes).
    Removing ball.o(.ARM.exidx), (8 bytes).
    Removing ball.o(.ARM.exidx), (8 bytes).
    Removing ball.o(.ARM.exidx), (8 bytes).
    Removing ball.o(.ARM.exidx), (8 bytes).
    Removing ball.o(.ARM.exidx), (8 bytes).
    Removing ball.o(.ARM.exidx), (8 bytes).
    Removing ball.o(.ARM.exidx), (8 bytes).
    Removing ball.o(.ARM.exidx), (8 bytes).
    Removing ball.o(.ARM.exidx), (8 bytes).
    Removing ball.o(.ARM.exidx), (8 bytes).
    Removing ball.o(.ARM.exidx), (8 bytes).
    Removing ball.o(.ARM.exidx), (8 bytes).
    Removing ball.o(.ARM.exidx), (8 bytes).
    Removing ball.o(.ARM.exidx), (8 bytes).
    Removing ball.o(.ARM.exidx), (8 bytes).
    Removing ball.o(.ARM.exidx), (8 bytes).
    Removing ball.o(.ARM.exidx), (8 bytes).
    Removing ball.o(.ARM.exidx), (8 bytes).
    Removing ball.o(.ARM.exidx), (8 bytes).
    Removing ball.o(.ARM.exidx), (8 bytes).
    Removing ball.o(.ARM.exidx), (8 bytes).
    Removing ball.o(.ARM.exidx), (8 bytes).
    Removing ball.o(.ARM.exidx), (8 bytes).
    Removing physics.o(.rev16_text), (4 bytes).
    Removing physics.o(.revsh_text), (4 bytes).
    Removing physics.o(.ARM.exidx), (8 bytes).
    Removing physics.o(.ARM.exidx), (8 bytes).
    Removing physics.o(.ARM.exidx), (8 bytes).
    Removing physics.o(.ARM.exidx), (8 bytes).
    Removing physics.o(.ARM.exidx), (8 bytes).
    Removing physics.o(.ARM.exidx), (8 bytes).
    Removing physics.o(.ARM.exidx), (8 bytes).
    Removing physics.o(.ARM.exidx), (8 bytes).
    Removing physics.o(.ARM.exidx), (8 bytes).
    Removing physics.o(.ARM.exidx), (8 bytes).
    Removing physics.o(.ARM.exidx), (8 bytes).
    Removing physics.o(.ARM.exidx), (8 bytes).
    Removing physics.o(.ARM.exidx), (8 bytes).
    Removing physics.o(.ARM.exidx), (8 bytes).
    Removing physics.o(.ARM.exidx), (8 bytes).
    Removing physics.o(.ARM.exidx), (8 bytes).
    Removing physics.o(.ARM.exidx), (8 bytes).
    Removing physics.o(.ARM.exidx), (8 bytes).
    Removing physics.o(.ARM.exidx), (8 bytes).
    Removing physics.o(.ARM.exidx), (8 bytes).
    Removing interface.o(.rev16_text), (4 bytes).
    Removing interface.o(.revsh_text), (4 bytes).
    Removing interface.o(i._ZNK9Interface10getCueBallEv), (6 bytes).
    Removing interface.o(i._ZNK9Interface12getBlackBallEv), (6 bytes).
    Removing interface.o(i._ZNK9Interface13getBallsArrayEv), (6 bytes).
    Removing interface.o(i._ZNK9Interface8getTableEv), (6 bytes).
    Removing interface.o(.ARM.exidx), (8 bytes).
    Removing interface.o(.ARM.exidx), (8 bytes).
    Removing interface.o(.ARM.exidx), (8 bytes).
    Removing interface.o(.ARM.exidx), (8 bytes).
    Removing interface.o(.ARM.exidx), (8 bytes).
    Removing interface.o(.ARM.exidx), (8 bytes).
    Removing interface.o(.ARM.exidx), (8 bytes).
    Removing interface.o(.ARM.exidx), (8 bytes).
    Removing interface.o(.ARM.exidx), (8 bytes).
    Removing interface.o(.ARM.exidx), (8 bytes).
    Removing interface.o(.ARM.exidx), (8 bytes).
    Removing interface.o(.ARM.exidx), (8 bytes).
    Removing interface.o(.ARM.exidx), (8 bytes).
    Removing interface.o(.ARM.exidx), (8 bytes).
    Removing interface.o(.ARM.exidx), (8 bytes).
    Removing interface.o(.ARM.exidx), (8 bytes).
    Removing interface.o(.ARM.exidx), (8 bytes).
    Removing interface.o(.ARM.exidx), (8 bytes).
    Removing interface.o(.ARM.exidx), (8 bytes).
    Removing table.o(.rev16_text), (4 bytes).
    Removing table.o(.revsh_text), (4 bytes).
    Removing table.o(.ARM.exidx), (8 bytes).
    Removing table.o(.ARM.exidx), (8 bytes).
    Removing table.o(.ARM.exidx), (8 bytes).
    Removing table.o(.ARM.exidx), (8 bytes).
    Removing table.o(.ARM.exidx), (8 bytes).
    Removing shot.o(i._ZN4Shot6addStrEf), (46 bytes).
    Removing shot.o(i._ZN4Shot6subStrEf), (46 bytes).
    Removing shot.o(.ARM.exidx), (8 bytes).
    Removing shot.o(.ARM.exidx), (8 bytes).
    Removing shot.o(.ARM.exidx), (8 bytes).
    Removing shot.o(.ARM.exidx), (8 bytes).
    Removing shot.o(.ARM.exidx), (8 bytes).
    Removing shot.o(.ARM.exidx), (8 bytes).
    Removing shot.o(.ARM.exidx), (8 bytes).
    Removing shot.o(.ARM.exidx), (8 bytes).
    Removing game.o(.rev16_text), (4 bytes).
    Removing game.o(.revsh_text), (4 bytes).
    Removing game.o(i._ZN4Game10SetDisplayEP7Display), (4 bytes).
    Removing game.o(i._ZN4GameC1Ev), (170 bytes).
    Removing game.o(.ARM.exidx), (8 bytes).
    Removing game.o(.ARM.exidx), (8 bytes).
    Removing game.o(.ARM.exidx), (8 bytes).
    Removing game.o(.ARM.exidx), (8 bytes).
    Removing game.o(.ARM.exidx), (8 bytes).
    Removing game.o(.ARM.exidx), (8 bytes).
    Removing game.o(.ARM.exidx), (8 bytes).
    Removing game.o(.ARM.exidx), (8 bytes).
    Removing game.o(.ARM.exidx), (8 bytes).
    Removing game.o(.ARM.exidx), (8 bytes).
    Removing game.o(.ARM.exidx), (8 bytes).
    Removing game.o(.ARM.exidx), (8 bytes).
    Removing game.o(.ARM.exidx), (8 bytes).
    Removing game.o(.ARM.exidx), (8 bytes).
    Removing game.o(.ARM.exidx), (8 bytes).
    Removing game.o(.ARM.exidx), (8 bytes).
    Removing game.o(.ARM.exidx), (8 bytes).
    Removing game.o(.ARM.exidx), (8 bytes).
    Removing game.o(.ARM.exidx), (8 bytes).
    Removing game.o(.ARM.exidx), (8 bytes).
    Removing game.o(.ARM.exidx), (8 bytes).
    Removing game.o(.ARM.exidx), (8 bytes).
    Removing game.o(.ARM.exidx), (8 bytes).
    Removing game.o(.ARM.exidx), (8 bytes).
    Removing game.o(.ARM.exidx), (8 bytes).
    Removing game.o(.ARM.exidx), (8 bytes).
    Removing game.o(.ARM.exidx), (8 bytes).
    Removing cue.o(.rev16_text), (4 bytes).
    Removing cue.o(.revsh_text), (4 bytes).
    Removing cue.o(i._ZN3Cue4initEv), (2 bytes).
    Removing cue.o(i._ZN3Cue9rotateCueEf), (40 bytes).
    Removing cue.o(i._ZN3CueD0Ev), (18 bytes).
    Removing cue.o(i._ZNK3Cue11getPositionEv), (10 bytes).
    Removing cue.o(i._ZNK3Cue11getStrengthEv), (6 bytes).
    Removing cue.o(i._ZNK3Cue8getAngleEv), (6 bytes).
    Removing cue.o(.ARM.exidx), (8 bytes).
    Removing cue.o(.ARM.exidx), (8 bytes).
    Removing cue.o(.ARM.exidx), (8 bytes).
    Removing cue.o(.ARM.exidx), (8 bytes).
    Removing cue.o(.ARM.exidx), (8 bytes).
    Removing cue.o(.ARM.exidx), (8 bytes).
    Removing cue.o(.ARM.exidx), (8 bytes).
    Removing cue.o(.ARM.exidx), (8 bytes).
    Removing cue.o(.ARM.exidx), (8 bytes).
    Removing cue.o(.ARM.exidx), (8 bytes).
    Removing cue.o(.ARM.exidx), (8 bytes).
    Removing cue.o(.ARM.exidx), (8 bytes).
    Removing cmsis_nvic.o(.rev16_text), (4 bytes).
    Removing cmsis_nvic.o(.revsh_text), (4 bytes).
    Removing cmsis_nvic.o(i.NVIC_GetVector), (20 bytes).
    Removing system_lpc407x_8x_177x_8x.o(.rev16_text), (4 bytes).
    Removing system_lpc407x_8x_177x_8x.o(.revsh_text), (4 bytes).
    Removing sys.o(.ARM.exidx), (8 bytes).
    Removing sys_helper.o(i.__reserved_stack_size), (4 bytes).
    Removing sys_helper.o(.ARM.exidx), (8 bytes).
    Removing gpio.o(.rev16_text), (4 bytes).
    Removing gpio.o(.revsh_text), (4 bytes).
    Removing gpio.o(i.gpio_init_inout), (56 bytes).
    Removing rtc_time.o(.rev16_text), (4 bytes).
    Removing rtc_time.o(.revsh_text), (4 bytes).
    Removing rtc_time.o(i.attach_rtc), (40 bytes).
    Removing rtc_time.o(i.set_time), (40 bytes).
    Removing rtc_time.o(i.time), (56 bytes).
    Removing rtc_time.o(.data), (16 bytes).
    Removing wait_api.o(.rev16_text), (4 bytes).
    Removing wait_api.o(.revsh_text), (4 bytes).
    Removing ethernet.o(.rev16_text), (4 bytes).
    Removing ethernet.o(.revsh_text), (4 bytes).
    Removing ethernet.o(i._ZN4mbed8Ethernet7addressEPc), (14 bytes).
    Removing ethernet.o(i._ZN4mbed8Ethernet8set_linkENS0_4ModeE), (74 bytes).
    Removing ethernet.o(i._ZN4mbed8EthernetD0Ev), (18 bytes).
    Removing ethernet.o(.ARM.exidx), (8 bytes).
    Removing ethernet.o(.ARM.exidx), (8 bytes).
    Removing ethernet.o(.ARM.exidx), (8 bytes).
    Removing ethernet.o(.ARM.exidx), (8 bytes).
    Removing ethernet.o(.ARM.exidx), (8 bytes).
    Removing ethernet.o(.ARM.exidx), (8 bytes).
    Removing ethernet.o(.ARM.exidx), (8 bytes).
    Removing ethernet.o(.ARM.exidx), (8 bytes).
    Removing ethernet.o(.ARM.exidx), (8 bytes).
    Removing ethernet.o(.ARM.exidx), (8 bytes).
    Removing stream.o(.rev16_text), (4 bytes).
    Removing stream.o(.revsh_text), (4 bytes).
    Removing stream.o(i._ZN4mbed6Stream4getcEv), (18 bytes).
    Removing stream.o(i._ZN4mbed6Stream4getsEPci), (26 bytes).
    Removing stream.o(i._ZN4mbed6Stream4putcEi), (22 bytes).
    Removing stream.o(i._ZN4mbed6Stream4putsEPKc), (22 bytes).
    Removing stream.o(i._ZN4mbed6Stream4readEPvj), (54 bytes).
    Removing stream.o(i._ZN4mbed6Stream5fsyncEv), (6 bytes).
    Removing stream.o(i._ZN4mbed6Stream5scanfEPKcz), (40 bytes).
    Removing stream.o(i._ZN4mbed6StreamD0Ev), (18 bytes).
    Removing stream.o(i._ZN4mbed6StreamD2Ev), (36 bytes).
    Removing stream.o(i._ZThn4_N4mbed6StreamD0Ev), (14 bytes).
    Removing stream.o(i._ZThn4_N4mbed6StreamD1Ev), (14 bytes).
    Removing stream.o(.ARM.exidx), (8 bytes).
    Removing stream.o(.ARM.exidx), (8 bytes).
    Removing stream.o(.ARM.exidx), (8 bytes).
    Removing stream.o(.ARM.exidx), (8 bytes).
    Removing stream.o(.ARM.exidx), (8 bytes).
    Removing stream.o(.ARM.exidx), (8 bytes).
    Removing stream.o(.ARM.exidx), (8 bytes).
    Removing stream.o(.ARM.exidx), (8 bytes).
    Removing stream.o(.ARM.exidx), (8 bytes).
    Removing stream.o(.ARM.exidx), (8 bytes).
    Removing stream.o(.ARM.exidx), (8 bytes).
    Removing stream.o(.ARM.exidx), (8 bytes).
    Removing stream.o(.ARM.exidx), (8 bytes).
    Removing stream.o(.ARM.exidx), (8 bytes).
    Removing stream.o(.ARM.exidx), (8 bytes).
    Removing stream.o(.ARM.exidx), (8 bytes).
    Removing stream.o(.ARM.exidx), (8 bytes).
    Removing stream.o(.ARM.exidx), (8 bytes).
    Removing analogin_api.o(.rev16_text), (4 bytes).
    Removing analogin_api.o(.revsh_text), (4 bytes).
    Removing analogin_api.o(i.analogin_read_u16), (24 bytes).
    Removing adafruit_gfx.o(.rev16_text), (4 bytes).
    Removing adafruit_gfx.o(.revsh_text), (4 bytes).
    Removing adafruit_gfx.o(i._ZN12Adafruit_GFX10drawBitmapEssPKhsst), (110 bytes).
    Removing adafruit_gfx.o(i._ZN12Adafruit_GFX10drawCircleEssst), (356 bytes).
    Removing adafruit_gfx.o(i._ZN12Adafruit_GFX10fillScreenEt), (32 bytes).
    Removing adafruit_gfx.o(i._ZN12Adafruit_GFX11getRotationEv), (6 bytes).
    Removing adafruit_gfx.o(i._ZN12Adafruit_GFX11setRotationEh), (52 bytes).
    Removing adafruit_gfx.o(i._ZN12Adafruit_GFX11setTextSizeEh), (14 bytes).
    Removing adafruit_gfx.o(i._ZN12Adafruit_GFX11setTextWrapEb), (4 bytes).
    Removing adafruit_gfx.o(i._ZN12Adafruit_GFX12drawTriangleEsssssst), (86 bytes).
    Removing adafruit_gfx.o(i._ZN12Adafruit_GFX12fillTriangleEsssssst), (440 bytes).
    Removing adafruit_gfx.o(i._ZN12Adafruit_GFX12setTextColorEt), (6 bytes).
    Removing adafruit_gfx.o(i._ZN12Adafruit_GFX13drawFastHLineEssst), (44 bytes).
    Removing adafruit_gfx.o(i._ZN12Adafruit_GFX13drawRoundRectEssssst), (258 bytes).
    Removing adafruit_gfx.o(i._ZN12Adafruit_GFX13fillRoundRectEssssst), (126 bytes).
    Removing adafruit_gfx.o(i._ZN12Adafruit_GFX13invertDisplayEb), (2 bytes).
    Removing adafruit_gfx.o(i._ZN12Adafruit_GFX16drawCircleHelperEsssht), (298 bytes).
    Removing adafruit_gfx.o(i._ZN12Adafruit_GFX8drawRectEsssst), (104 bytes).
    Removing adafruit_gfx.o(.ARM.exidx), (8 bytes).
    Removing adafruit_gfx.o(.ARM.exidx), (8 bytes).
    Removing adafruit_gfx.o(.ARM.exidx), (8 bytes).
    Removing adafruit_gfx.o(.ARM.exidx), (8 bytes).
    Removing adafruit_gfx.o(.ARM.exidx), (8 bytes).
    Removing adafruit_gfx.o(.ARM.exidx), (8 bytes).
    Removing adafruit_gfx.o(.ARM.exidx), (8 bytes).
    Removing adafruit_gfx.o(.ARM.exidx), (8 bytes).
    Removing adafruit_gfx.o(.ARM.exidx), (8 bytes).
    Removing adafruit_gfx.o(.ARM.exidx), (8 bytes).
    Removing adafruit_gfx.o(.ARM.exidx), (8 bytes).
    Removing adafruit_gfx.o(.ARM.exidx), (8 bytes).
    Removing adafruit_gfx.o(.ARM.exidx), (8 bytes).
    Removing adafruit_gfx.o(.ARM.exidx), (8 bytes).
    Removing adafruit_gfx.o(.ARM.exidx), (8 bytes).
    Removing adafruit_gfx.o(.ARM.exidx), (8 bytes).
    Removing adafruit_gfx.o(.ARM.exidx), (8 bytes).
    Removing adafruit_gfx.o(.ARM.exidx), (8 bytes).
    Removing adafruit_gfx.o(.ARM.exidx), (8 bytes).
    Removing adafruit_gfx.o(.ARM.exidx), (8 bytes).
    Removing adafruit_gfx.o(.ARM.exidx), (8 bytes).
    Removing adafruit_gfx.o(.ARM.exidx), (8 bytes).
    Removing adafruit_gfx.o(.ARM.exidx), (8 bytes).
    Removing adafruit_gfx.o(.ARM.exidx), (8 bytes).
    Removing adafruit_gfx.o(.ARM.exidx), (8 bytes).
    Removing adafruit_gfx.o(.ARM.exidx), (8 bytes).
    Removing adafruit_gfx.o(.ARM.exidx), (8 bytes).
    Removing adafruit_gfx.o(.ARM.exidx), (8 bytes).
    Removing mma7455.o(.rev16_text), (4 bytes).
    Removing mma7455.o(.revsh_text), (4 bytes).
    Removing mma7455.o(i._ZN7MMA745514getModeControlEv), (66 bytes).
    Removing mma7455.o(i._ZN7MMA745514setModeControlEh), (52 bytes).
    Removing mma7455.o(i._ZN7MMA745521getCalibrationOffsetsERiS0_S0_), (20 bytes).
    Removing mma7455.o(i._ZN7MMA745521setCalibrationOffsetsEiii), (14 bytes).
    Removing mma7455.o(i._ZN7MMA74554readERiS0_S0_), (242 bytes).
    Removing mma7455.o(i._ZN7MMA74557setModeENS_4ModeE), (62 bytes).
    Removing mma7455.o(i._ZN7MMA74558setRangeENS_5RangeE), (64 bytes).
    Removing mma7455.o(i._ZN7MMA74559calibrateEv), (170 bytes).
    Removing mma7455.o(i._ZN7MMA74559getStatusEv), (66 bytes).
    Removing mma7455.o(.ARM.exidx), (8 bytes).
    Removing mma7455.o(.ARM.exidx), (8 bytes).
    Removing mma7455.o(.ARM.exidx), (8 bytes).
    Removing mma7455.o(.ARM.exidx), (8 bytes).
    Removing mma7455.o(.ARM.exidx), (8 bytes).
    Removing mma7455.o(.ARM.exidx), (8 bytes).
    Removing mma7455.o(.ARM.exidx), (8 bytes).
    Removing mma7455.o(.ARM.exidx), (8 bytes).
    Removing mma7455.o(.ARM.exidx), (8 bytes).
    Removing mma7455.o(.ARM.exidx), (8 bytes).
    Removing lm75b.o(.rev16_text), (4 bytes).
    Removing lm75b.o(.revsh_text), (4 bytes).
    Removing lm75b.o(i._ZN5LM75B10osPolarityENS_10OSPolarityE), (42 bytes).
    Removing lm75b.o(i._ZN5LM75B10osPolarityEv), (28 bytes).
    Removing lm75b.o(i._ZN5LM75B12osFaultQueueENS_12OSFaultQueueE), (60 bytes).
    Removing lm75b.o(i._ZN5LM75B12osFaultQueueEv), (66 bytes).
    Removing lm75b.o(i._ZN5LM75B19readAlertTempHelperEc), (80 bytes).
    Removing lm75b.o(i._ZN5LM75B20writeAlertTempHelperEcf), (148 bytes).
    Removing lm75b.o(i._ZN5LM75B4tempEv), (80 bytes).
    Removing lm75b.o(i._ZN5LM75B5read8Ec), (46 bytes).
    Removing lm75b.o(i._ZN5LM75B6osModeENS_6OSModeE), (42 bytes).
    Removing lm75b.o(i._ZN5LM75B6osModeEv), (28 bytes).
    Removing lm75b.o(i._ZN5LM75B6read16Ec), (54 bytes).
    Removing lm75b.o(i._ZN5LM75B6write8Ecc), (34 bytes).
    Removing lm75b.o(i._ZN5LM75B7write16Ect), (42 bytes).
    Removing lm75b.o(i._ZN5LM75B9alertHystEf), (30 bytes).
    Removing lm75b.o(i._ZN5LM75B9alertHystEv), (14 bytes).
    Removing lm75b.o(i._ZN5LM75B9alertTempEf), (30 bytes).
    Removing lm75b.o(i._ZN5LM75B9alertTempEv), (14 bytes).
    Removing lm75b.o(i._ZN5LM75B9powerModeENS_9PowerModeE), (42 bytes).
    Removing lm75b.o(i._ZN5LM75B9powerModeEv), (28 bytes).
    Removing lm75b.o(i._ZN5LM75BcvfEv), (12 bytes).
    Removing lm75b.o(.ARM.exidx), (8 bytes).
    Removing lm75b.o(.ARM.exidx), (8 bytes).
    Removing lm75b.o(.ARM.exidx), (8 bytes).
    Removing lm75b.o(.ARM.exidx), (8 bytes).
    Removing lm75b.o(.ARM.exidx), (8 bytes).
    Removing lm75b.o(.ARM.exidx), (8 bytes).
    Removing lm75b.o(.ARM.exidx), (8 bytes).
    Removing lm75b.o(.ARM.exidx), (8 bytes).
    Removing lm75b.o(.ARM.exidx), (8 bytes).
    Removing lm75b.o(.ARM.exidx), (8 bytes).
    Removing lm75b.o(.ARM.exidx), (8 bytes).
    Removing lm75b.o(.ARM.exidx), (8 bytes).
    Removing lm75b.o(.ARM.exidx), (8 bytes).
    Removing lm75b.o(.ARM.exidx), (8 bytes).
    Removing lm75b.o(.ARM.exidx), (8 bytes).
    Removing lm75b.o(.ARM.exidx), (8 bytes).
    Removing lm75b.o(.ARM.exidx), (8 bytes).
    Removing lm75b.o(.ARM.exidx), (8 bytes).
    Removing lm75b.o(.ARM.exidx), (8 bytes).
    Removing lm75b.o(.ARM.exidx), (8 bytes).
    Removing lm75b.o(.ARM.exidx), (8 bytes).
    Removing lm75b.o(.ARM.exidx), (8 bytes).
    Removing display.o(.rev16_text), (4 bytes).
    Removing display.o(.revsh_text), (4 bytes).
    Removing display.o(i._ZN7Display5_getcEv), (8 bytes).
    Removing display.o(i._ZN7Display6initOkEv), (16 bytes).
    Removing display.o(i._ZN7DisplayD0Ev), (18 bytes).
    Removing display.o(i._ZN7DisplayD1Ev), (52 bytes).
    Removing display.o(i._ZThn4_N7DisplayD0Ev), (14 bytes).
    Removing display.o(i._ZThn4_N7DisplayD1Ev), (14 bytes).
    Removing display.o(.ARM.exidx), (8 bytes).
    Removing display.o(.ARM.exidx), (8 bytes).
    Removing display.o(.ARM.exidx), (8 bytes).
    Removing display.o(.ARM.exidx), (8 bytes).
    Removing display.o(.ARM.exidx), (8 bytes).
    Removing display.o(.ARM.exidx), (8 bytes).
    Removing display.o(.ARM.exidx), (8 bytes).
    Removing display.o(.ARM.exidx), (8 bytes).
    Removing display.o(.ARM.exidx), (8 bytes).
    Removing error.o(.rev16_text), (4 bytes).
    Removing error.o(.revsh_text), (4 bytes).
    Removing pinmap_common.o(.rev16_text), (4 bytes).
    Removing pinmap_common.o(.revsh_text), (4 bytes).
    Removing pinmap_common.o(i.pinmap_find_function), (32 bytes).
    Removing pinmap_common.o(i.pinmap_function), (76 bytes).
    Removing filelike.o(.rev16_text), (4 bytes).
    Removing filelike.o(.revsh_text), (4 bytes).
    Removing filelike.o(i._ZN4mbed8FileLikeD0Ev), (18 bytes).
    Removing filelike.o(i._ZN4mbed8FileLikeD2Ev), (24 bytes).
    Removing filelike.o(i._ZThn4_N4mbed8FileLikeD0Ev), (14 bytes).
    Removing filelike.o(i._ZThn4_N4mbed8FileLikeD1Ev), (14 bytes).
    Removing filelike.o(.ARM.exidx), (8 bytes).
    Removing filelike.o(.ARM.exidx), (8 bytes).
    Removing filelike.o(.ARM.exidx), (8 bytes).
    Removing filelike.o(.ARM.exidx), (8 bytes).
    Removing filelike.o(.ARM.exidx), (8 bytes).
    Removing i2c.o(.rev16_text), (4 bytes).
    Removing i2c.o(.revsh_text), (4 bytes).
    Removing i2c.o(i._ZN4mbed3I2C4readEi), (28 bytes).
    Removing i2c.o(i._ZN4mbed3I2C4stopEv), (12 bytes).
    Removing i2c.o(i._ZN4mbed3I2C5startEv), (12 bytes).
    Removing i2c.o(i._ZN4mbed3I2C5writeEi), (16 bytes).
    Removing i2c.o(.ARM.exidx), (8 bytes).
    Removing i2c.o(.ARM.exidx), (8 bytes).
    Removing i2c.o(.ARM.exidx), (8 bytes).
    Removing i2c.o(.ARM.exidx), (8 bytes).
    Removing i2c.o(.ARM.exidx), (8 bytes).
    Removing i2c.o(.ARM.exidx), (8 bytes).
    Removing i2c.o(.ARM.exidx), (8 bytes).
    Removing i2c.o(.ARM.exidx), (8 bytes).
    Removing i2c.o(.ARM.exidx), (8 bytes).
    Removing gpio_api.o(.rev16_text), (4 bytes).
    Removing gpio_api.o(.revsh_text), (4 bytes).
    Removing rtc_api.o(.rev16_text), (4 bytes).
    Removing rtc_api.o(.revsh_text), (4 bytes).
    Removing rtc_api.o(i.rtc_free), (2 bytes).
    Removing rtc_api.o(i.rtc_init), (44 bytes).
    Removing rtc_api.o(i.rtc_isenabled), (16 bytes).
    Removing rtc_api.o(i.rtc_read), (80 bytes).
    Removing rtc_api.o(i.rtc_write), (84 bytes).
    Removing us_ticker.o(.rev16_text), (4 bytes).
    Removing us_ticker.o(.revsh_text), (4 bytes).
    Removing ethernet_api.o(.rev16_text), (4 bytes).
    Removing ethernet_api.o(.revsh_text), (4 bytes).
    Removing ethernet_api.o(.constdata), (4 bytes).
    Removing retarget.o(.rev16_text), (4 bytes).
    Removing retarget.o(.revsh_text), (4 bytes).
    Removing retarget.o(i._ZN4mbed10FileHandleD0Ev), (18 bytes).
    Removing retarget.o(i._ZN4mbed10FileHandleD2Ev), (48 bytes).
    Removing retarget.o(i._ZN4mbed9mbed_getcEPSt6__FILE), (12 bytes).
    Removing retarget.o(i._ZN4mbed9mbed_getsEPciPSt6__FILE), (20 bytes).
    Removing retarget.o(i._sys_command_string), (6 bytes).
    Removing retarget.o(i._sys_ensure), (44 bytes).
    Removing retarget.o(i._sys_read), (92 bytes).
    Removing retarget.o(i.closedir), (14 bytes).
    Removing retarget.o(i.mkdir), (58 bytes).
    Removing retarget.o(i.opendir), (68 bytes).
    Removing retarget.o(i.readdir), (14 bytes).
    Removing retarget.o(i.remove), (54 bytes).
    Removing retarget.o(i.rename), (88 bytes).
    Removing retarget.o(i.rewinddir), (14 bytes).
    Removing retarget.o(i.seekdir), (18 bytes).
    Removing retarget.o(i.telldir), (14 bytes).
    Removing retarget.o(i.tmpfile), (4 bytes).
    Removing retarget.o(i.tmpnam), (6 bytes).
    Removing retarget.o(.ARM.exidx), (8 bytes).
    Removing retarget.o(.ARM.exidx), (8 bytes).
    Removing retarget.o(.ARM.exidx), (8 bytes).
    Removing retarget.o(.ARM.exidx), (8 bytes).
    Removing retarget.o(.ARM.exidx), (8 bytes).
    Removing retarget.o(.ARM.exidx), (8 bytes).
    Removing retarget.o(.ARM.exidx), (8 bytes).
    Removing retarget.o(.ARM.exidx), (8 bytes).
    Removing retarget.o(.ARM.exidx), (8 bytes).
    Removing retarget.o(.ARM.exidx), (8 bytes).
    Removing retarget.o(.ARM.exidx), (8 bytes).
    Removing retarget.o(.ARM.exidx), (8 bytes).
    Removing retarget.o(.ARM.exidx), (8 bytes).
    Removing retarget.o(.ARM.exidx), (8 bytes).
    Removing retarget.o(.ARM.exidx), (8 bytes).
    Removing retarget.o(.ARM.exidx), (8 bytes).
    Removing retarget.o(.ARM.exidx), (8 bytes).
    Removing retarget.o(.ARM.exidx), (8 bytes).
    Removing retarget.o(.ARM.exidx), (8 bytes).
    Removing retarget.o(.ARM.exidx), (8 bytes).
    Removing retarget.o(.ARM.exidx), (8 bytes).
    Removing retarget.o(.ARM.exidx), (8 bytes).
    Removing retarget.o(.ARM.exidx), (8 bytes).
    Removing retarget.o(.ARM.exidx), (8 bytes).
    Removing retarget.o(.ARM.exidx), (8 bytes).
    Removing retarget.o(.ARM.exidx), (8 bytes).
    Removing retarget.o(.ARM.exidx), (8 bytes).
    Removing retarget.o(.ARM.exidx), (8 bytes).
    Removing retarget.o(.ARM.exidx), (8 bytes).
    Removing retarget.o(.ARM.exidx), (8 bytes).
    Removing ealcdboardgpio.o(.rev16_text), (4 bytes).
    Removing ealcdboardgpio.o(.revsh_text), (4 bytes).
    Removing ealcdboardgpio.o(.ARM.exidx), (8 bytes).
    Removing ealcdboardgpio.o(.ARM.exidx), (8 bytes).
    Removing ealcdboardgpio.o(.ARM.exidx), (8 bytes).
    Removing ealcdboardgpio.o(.ARM.exidx), (8 bytes).
    Removing ealcdboardgpio.o(.ARM.exidx), (8 bytes).
    Removing ealcdboardgpio.o(.ARM.exidx), (8 bytes).
    Removing ealcdboard.o(.rev16_text), (4 bytes).
    Removing ealcdboard.o(.revsh_text), (4 bytes).
    Removing ealcdboard.o(i._ZN10EaLcdBoard11eepromWriteEPhtt), (178 bytes).
    Removing ealcdboard.o(i._ZN10EaLcdBoard13getDisplayMfgEPci), (68 bytes).
    Removing ealcdboard.o(i._ZN10EaLcdBoard14getDisplayNameEPci), (64 bytes).
    Removing ealcdboard.o(i._ZN10EaLcdBoard15getPowerDownSeqEPci), (88 bytes).
    Removing ealcdboard.o(i._ZN10EaLcdBoard15setWriteProtectEb), (36 bytes).
    Removing ealcdboard.o(i._ZN10EaLcdBoard15storeParametersEPKcS1_PN13LcdController6ConfigES1_S1_PNS_13TouchParams_tEb), (436 bytes).
    Removing ealcdboard.o(i._ZN10EaLcdBoard18getTouchParametersEPNS_13TouchParams_tE), (92 bytes).
    Removing ealcdboard.o(i._ZN10EaLcdBoard5closeEv), (54 bytes).
    Removing ealcdboard.o(.ARM.exidx), (8 bytes).
    Removing ealcdboard.o(.ARM.exidx), (8 bytes).
    Removing ealcdboard.o(.ARM.exidx), (8 bytes).
    Removing ealcdboard.o(.ARM.exidx), (8 bytes).
    Removing ealcdboard.o(.ARM.exidx), (8 bytes).
    Removing ealcdboard.o(.ARM.exidx), (8 bytes).
    Removing ealcdboard.o(.ARM.exidx), (8 bytes).
    Removing ealcdboard.o(.ARM.exidx), (8 bytes).
    Removing ealcdboard.o(.ARM.exidx), (8 bytes).
    Removing ealcdboard.o(.ARM.exidx), (8 bytes).
    Removing ealcdboard.o(.ARM.exidx), (8 bytes).
    Removing ealcdboard.o(.ARM.exidx), (8 bytes).
    Removing ealcdboard.o(.ARM.exidx), (8 bytes).
    Removing ealcdboard.o(.ARM.exidx), (8 bytes).
    Removing ealcdboard.o(.ARM.exidx), (8 bytes).
    Removing ealcdboard.o(.ARM.exidx), (8 bytes).
    Removing ealcdboard.o(.ARM.exidx), (8 bytes).
    Removing ealcdboard.o(.ARM.exidx), (8 bytes).
    Removing ealcdboard.o(.ARM.exidx), (8 bytes).
    Removing ealcdboard.o(.ARM.exidx), (8 bytes).
    Removing ealcdboard.o(.ARM.exidx), (8 bytes).
    Removing ealcdboard.o(.ARM.exidx), (8 bytes).
    Removing ealcdboard.o(.ARM.exidx), (8 bytes).
    Removing ealcdboard.o(.ARM.exidx), (8 bytes).
    Removing ealcdboard.o(.ARM.exidx), (8 bytes).
    Removing ealcdboard.o(.ARM.exidx), (8 bytes).
    Removing ealcdboard.o(.ARM.exidx), (8 bytes).
    Removing ealcdboard.o(.ARM.exidx), (8 bytes).
    Removing ealcdboard.o(.ARM.exidx), (8 bytes).
    Removing ealcdboard.o(.ARM.exidx), (8 bytes).
    Removing ealcdboard.o(.ARM.exidx), (8 bytes).
    Removing ealcdboard.o(.ARM.exidx), (8 bytes).
    Removing gfxfb.o(.rev16_text), (4 bytes).
    Removing gfxfb.o(.revsh_text), (4 bytes).
    Removing gfxfb.o(i._ZN5GFXFb11writeStringEPKc), (34 bytes).
    Removing gfxfb.o(i._ZN5GFXFb13drawFastHLineEssst), (98 bytes).
    Removing gfxfb.o(i._ZN5GFXFb14getStringWidthEPKc), (30 bytes).
    Removing gfxfb.o(i._ZN5GFXFb15getStringHeightEPKc), (6 bytes).
    Removing gfxfb.o(.ARM.exidx), (8 bytes).
    Removing gfxfb.o(.ARM.exidx), (8 bytes).
    Removing gfxfb.o(.ARM.exidx), (8 bytes).
    Removing gfxfb.o(.ARM.exidx), (8 bytes).
    Removing gfxfb.o(.ARM.exidx), (8 bytes).
    Removing gfxfb.o(.ARM.exidx), (8 bytes).
    Removing gfxfb.o(.ARM.exidx), (8 bytes).
    Removing gfxfb.o(.ARM.exidx), (8 bytes).
    Removing sdram.o(.rev16_text), (4 bytes).
    Removing sdram.o(.revsh_text), (4 bytes).
    Removing sdram.o(i._Z24sdram_disableMallocSdramv), (12 bytes).
    Removing sdram.o(.ARM.exidx), (8 bytes).
    Removing sdram.o(.ARM.exidx), (8 bytes).
    Removing sdram.o(.ARM.exidx), (8 bytes).
    Removing sdram.o(.ARM.exidx), (8 bytes).
    Removing sdram.o(.ARM.exidx), (8 bytes).
    Removing sdram.o(.ARM.exidx), (8 bytes).
    Removing sdram.o(.ARM.exidx), (8 bytes).
    Removing sdram.o(.ARM.exidx), (8 bytes).
    Removing sdram.o(.ARM.exidx), (8 bytes).
    Removing sdram.o(.ARM.exidx), (8 bytes).
    Removing us_ticker_api.o(.rev16_text), (4 bytes).
    Removing us_ticker_api.o(.revsh_text), (4 bytes).
    Removing us_ticker_api.o(i.get_us_ticker_data), (8 bytes).
    Removing filebase.o(.rev16_text), (4 bytes).
    Removing filebase.o(.revsh_text), (4 bytes).
    Removing filebase.o(i._ZN4mbed8FileBase3getEi), (36 bytes).
    Removing filebase.o(i._ZN4mbed8FileBase7getNameEv), (6 bytes).
    Removing filebase.o(i._ZN4mbed8FileBaseD0Ev), (18 bytes).
    Removing filebase.o(i._ZN4mbed8FileBaseD1Ev), (56 bytes).
    Removing filebase.o(.ARM.exidx), (8 bytes).
    Removing filebase.o(.ARM.exidx), (8 bytes).
    Removing filebase.o(.ARM.exidx), (8 bytes).
    Removing filebase.o(.ARM.exidx), (8 bytes).
    Removing filebase.o(.ARM.exidx), (8 bytes).
    Removing filebase.o(.ARM.exidx), (8 bytes).
    Removing filebase.o(.ARM.exidx), (8 bytes).
    Removing filepath.o(.rev16_text), (4 bytes).
    Removing filepath.o(.revsh_text), (4 bytes).
    Removing filepath.o(.ARM.exidx), (8 bytes).
    Removing filepath.o(.ARM.exidx), (8 bytes).
    Removing filepath.o(.ARM.exidx), (8 bytes).
    Removing filepath.o(.ARM.exidx), (8 bytes).
    Removing filepath.o(.ARM.exidx), (8 bytes).
    Removing filepath.o(.ARM.exidx), (8 bytes).
    Removing filepath.o(.ARM.exidx), (8 bytes).
    Removing filesystemlike.o(.rev16_text), (4 bytes).
    Removing filesystemlike.o(.revsh_text), (4 bytes).
    Removing filesystemlike.o(i._ZN4mbed14FileSystemLike7opendirEv), (52 bytes).
    Removing filesystemlike.o(i._ZN4mbed14FileSystemLikeC2EPKc), (32 bytes).
    Removing filesystemlike.o(i._ZN4mbed14FileSystemLikeD0Ev), (18 bytes).
    Removing filesystemlike.o(i._ZN4mbed14FileSystemLikeD2Ev), (16 bytes).
    Removing filesystemlike.o(.ARM.exidx), (8 bytes).
    Removing filesystemlike.o(.ARM.exidx), (8 bytes).
    Removing filesystemlike.o(.ARM.exidx), (8 bytes).
    Removing filesystemlike.o(.ARM.exidx), (8 bytes).
    Removing pinmap.o(.rev16_text), (4 bytes).
    Removing pinmap.o(.revsh_text), (4 bytes).
    Removing i2c_api.o(.rev16_text), (4 bytes).
    Removing i2c_api.o(.revsh_text), (4 bytes).
    Removing i2c_api.o(i.i2c_byte_read), (18 bytes).
    Removing i2c_api.o(i.i2c_byte_write), (64 bytes).
    Removing i2c_api.o(i.i2c_reset), (12 bytes).
    Removing i2c_api.o(i.i2c_slave_address), (48 bytes).
    Removing i2c_api.o(i.i2c_slave_mode), (60 bytes).
    Removing i2c_api.o(i.i2c_slave_read), (92 bytes).
    Removing i2c_api.o(i.i2c_slave_receive), (48 bytes).
    Removing i2c_api.o(i.i2c_slave_write), (70 bytes).
    Removing pwmout_api.o(.rev16_text), (4 bytes).
    Removing pwmout_api.o(.revsh_text), (4 bytes).
    Removing pwmout_api.o(i.pwmout_free), (2 bytes).
    Removing pwmout_api.o(i.pwmout_period), (32 bytes).
    Removing pwmout_api.o(i.pwmout_pulsewidth), (32 bytes).
    Removing pwmout_api.o(i.pwmout_pulsewidth_ms), (22 bytes).
    Removing pwmout_api.o(i.pwmout_pulsewidth_us), (48 bytes).
    Removing pwmout_api.o(i.pwmout_read), (58 bytes).
    Removing serial_api.o(.rev16_text), (4 bytes).
    Removing serial_api.o(.revsh_text), (4 bytes).
    Removing serial_api.o(i.serial_break_clear), (14 bytes).
    Removing serial_api.o(i.serial_break_set), (14 bytes).
    Removing serial_api.o(i.serial_clear), (8 bytes).
    Removing serial_api.o(i.serial_free), (16 bytes).
    Removing serial_api.o(i.serial_getc), (22 bytes).
    Removing serial_api.o(i.serial_irq_handler), (24 bytes).
    Removing serial_api.o(i.serial_irq_set), (256 bytes).
    Removing serial_api.o(i.serial_pinout_tx), (20 bytes).
    Removing serial_api.o(i.serial_readable), (12 bytes).
    Removing serial_api.o(i.uart0_irq), (24 bytes).
    Removing serial_api.o(i.uart1_irq), (24 bytes).
    Removing serial_api.o(i.uart2_irq), (24 bytes).
    Removing serial_api.o(i.uart3_irq), (24 bytes).
    Removing serial_api.o(i.uart4_irq), (24 bytes).
    Removing serial_api.o(i.uart_irq), (64 bytes).
    Removing serial_api.o(.bss), (20 bytes).
    Removing board.o(.rev16_text), (4 bytes).
    Removing board.o(.revsh_text), (4 bytes).
    Removing lcdcontroller.o(.rev16_text), (4 bytes).
    Removing lcdcontroller.o(.revsh_text), (4 bytes).
    Removing lcdcontroller.o(i._ZN13LcdController5closeEv), (52 bytes).
    Removing lcdcontroller.o(.ARM.exidx), (8 bytes).
    Removing lcdcontroller.o(.ARM.exidx), (8 bytes).
    Removing lcdcontroller.o(.ARM.exidx), (8 bytes).
    Removing lcdcontroller.o(.ARM.exidx), (8 bytes).
    Removing lcdcontroller.o(.ARM.exidx), (8 bytes).
    Removing lcdcontroller.o(.ARM.exidx), (8 bytes).
    Removing lcdcontroller.o(.ARM.exidx), (8 bytes).
    Removing lcdcontroller.o(.ARM.exidx), (8 bytes).
    Removing ticker_api.o(.rev16_text), (4 bytes).
    Removing ticker_api.o(.revsh_text), (4 bytes).
    Removing ticker_api.o(i.ticker_get_next_timestamp), (26 bytes).
    Removing ticker_api.o(i.ticker_insert_event), (80 bytes).
    Removing ticker_api.o(i.ticker_read), (12 bytes).
    Removing ticker_api.o(i.ticker_remove_event), (82 bytes).
    Removing ticker_api.o(i.ticker_set_handler), (18 bytes).
    Removing main.o(.ARM.exidx), (8 bytes).
    Removing main.o(.ARM.exidx), (8 bytes).
    Removing vector.o(.ARM.exidx), (8 bytes).
    Removing vector.o(.ARM.exidx), (8 bytes).
    Removing game.o(.ARM.exidx), (8 bytes).
    Removing game.o(.ARM.exidx), (8 bytes).
    Removing game.o(.ARM.exidx), (8 bytes).
    Removing cue.o(.constdata__ZTI3Cue), (8 bytes).
    Removing cue.o(.constdata__ZTS3Cue), (5 bytes).
    Removing ethernet.o(.constdata__ZTIN4mbed8EthernetE), (8 bytes).
    Removing ethernet.o(.constdata__ZTSN4mbed8EthernetE), (17 bytes).
    Removing stream.o(.constdata__ZTIN4mbed6StreamE), (12 bytes).
    Removing stream.o(.constdata__ZTSN4mbed6StreamE), (15 bytes).
    Removing adafruit_gfx.o(.constdata__ZTI12Adafruit_GFX), (8 bytes).
    Removing adafruit_gfx.o(.constdata__ZTS12Adafruit_GFX), (15 bytes).
    Removing display.o(.ARM.exidx), (8 bytes).
    Removing display.o(.constdata__ZTI7Display), (32 bytes).
    Removing display.o(.constdata__ZTS7Display), (9 bytes).
    Removing filelike.o(.ARM.exidx), (8 bytes).
    Removing filelike.o(.constdata__ZTIN4mbed8FileLikeE), (32 bytes).
    Removing filelike.o(.constdata__ZTSN4mbed8FileLikeE), (17 bytes).
    Removing retarget.o(.constdata__ZTIN4mbed10FileHandleE), (8 bytes).
    Removing retarget.o(.constdata__ZTSN4mbed10FileHandleE), (20 bytes).
    Removing ealcdboardgpio.o(.ARM.exidx), (8 bytes).
    Removing ealcdboardgpio.o(.ARM.exidx), (8 bytes).
    Removing ealcdboardgpio.o(.constdata__ZTI14EaLcdBoardGPIO), (12 bytes).
    Removing ealcdboardgpio.o(.constdata__ZTS14EaLcdBoardGPIO), (17 bytes).
    Removing ealcdboard.o(.constdata__ZTI10EaLcdBoard), (8 bytes).
    Removing ealcdboard.o(.constdata__ZTS10EaLcdBoard), (13 bytes).
    Removing gfxfb.o(.constdata__ZTI5GFXFb), (12 bytes).
    Removing gfxfb.o(.constdata__ZTS5GFXFb), (7 bytes).
    Removing filebase.o(.constdata__ZTIN4mbed8FileBaseE), (8 bytes).
    Removing filebase.o(.constdata__ZTSN4mbed8FileBaseE), (17 bytes).
    Removing filesystemlike.o(.constdata__ZTVN4mbed14FileSystemLikeE), (36 bytes).
    Removing filesystemlike.o(i._ZN4mbed14FileSystemLike6removeEPKc), (8 bytes).
    Removing filesystemlike.o(.ARM.exidx), (8 bytes).
    Removing filesystemlike.o(i._ZN4mbed14FileSystemLike6renameEPKcS2_), (8 bytes).
    Removing filesystemlike.o(.ARM.exidx), (8 bytes).
    Removing filesystemlike.o(i._ZN4mbed14FileSystemLike7opendirEPKc), (6 bytes).
    Removing filesystemlike.o(.ARM.exidx), (8 bytes).
    Removing filesystemlike.o(i._ZN4mbed14FileSystemLike5mkdirEPKci), (8 bytes).
    Removing filesystemlike.o(.ARM.exidx), (8 bytes).
    Removing filesystemlike.o(.constdata__ZTVN4mbed9DirHandleE), (36 bytes).
    Removing filesystemlike.o(.constdata__ZTVN4mbed13BaseDirHandleE), (36 bytes).
    Removing filesystemlike.o(.constdata__ZTIN4mbed14FileSystemLikeE), (12 bytes).
    Removing filesystemlike.o(.constdata__ZTIN4mbed13BaseDirHandleE), (12 bytes).
    Removing filesystemlike.o(.constdata__ZTIN4mbed9DirHandleE), (8 bytes).
    Removing filesystemlike.o(.constdata__ZTSN4mbed14FileSystemLikeE), (24 bytes).
    Removing filesystemlike.o(.constdata__ZTSN4mbed9DirHandleE), (18 bytes).
    Removing filesystemlike.o(.constdata__ZTSN4mbed13BaseDirHandleE), (23 bytes).
    Removing filesystemlike.o(i._ZN4mbed9DirHandle7telldirEv), (8 bytes).
    Removing filesystemlike.o(.ARM.exidx), (8 bytes).
    Removing filesystemlike.o(i._ZN4mbed9DirHandle7seekdirEl), (2 bytes).
    Removing filesystemlike.o(.ARM.exidx), (8 bytes).
    Removing filesystemlike.o(i._ZN4mbed9DirHandleD2Ev), (2 bytes).
    Removing filesystemlike.o(.ARM.exidx), (8 bytes).
    Removing filesystemlike.o(i._ZN4mbed9DirHandleD0Ev), (16 bytes).
    Removing filesystemlike.o(.ARM.exidx), (8 bytes).
    Removing filesystemlike.o(i._ZN4mbed13BaseDirHandle8closedirEv), (18 bytes).
    Removing filesystemlike.o(.ARM.exidx), (8 bytes).
    Removing filesystemlike.o(i._ZN4mbed13BaseDirHandle7readdirEv), (50 bytes).
    Removing filesystemlike.o(.ARM.exidx), (8 bytes).
    Removing filesystemlike.o(i._ZN4mbed13BaseDirHandle7telldirEv), (6 bytes).
    Removing filesystemlike.o(.ARM.exidx), (8 bytes).
    Removing filesystemlike.o(i._ZN4mbed13BaseDirHandle7seekdirEl), (4 bytes).
    Removing filesystemlike.o(.ARM.exidx), (8 bytes).
    Removing filesystemlike.o(i._ZN4mbed13BaseDirHandle9rewinddirEv), (6 bytes).
    Removing filesystemlike.o(.ARM.exidx), (8 bytes).
    Removing filesystemlike.o(i._ZN4mbed13BaseDirHandleD1Ev), (4 bytes).
    Removing filesystemlike.o(.ARM.exidx), (8 bytes).
    Removing filesystemlike.o(i._ZN4mbed13BaseDirHandleD0Ev), (18 bytes).
    Removing filesystemlike.o(.ARM.exidx), (8 bytes).

748 unused section(s) (total 14939 bytes) removed from the image.

==============================================================================

Image Symbol Table

    Local Symbols

    Symbol Name                              Value     Ov Type        Size  Object(Section)

    RESET                                    0x00000000   Section      228  startup_lpc407x_8x_177x_8x.o(RESET)
    ../../../clib/unwind_pr.c                0x00000000   Number         0  unwind_prcommon.o ABSOLUTE
    ../../../clib/unwind_pr.c                0x00000000   Number         0  unwind_pr0.o ABSOLUTE
    ../../../clib/unwinder.c                 0x00000000   Number         0  unwinder.o ABSOLUTE
    ../../../clib/unwinder.c                 0x00000000   Number         0  unwinder.o ABSOLUTE
    ../../../clib/unwinder.c                 0x00000000   Number         0  unwind_activity.o ABSOLUTE
    ../../../clib/unwinder.c                 0x00000000   Number         0  unwind_activity.o ABSOLUTE
    ../../../edgfe/lib_src/arm_exceptions.c  0x00000000   Number         0  arm_exceptions_mem.o ABSOLUTE
    ../../../edgfe/lib_src/arm_exceptions.c  0x00000000   Number         0  arm_exceptions_callterm.o ABSOLUTE
    ../../../edgfe/lib_src/arm_exceptions.c  0x00000000   Number         0  arm_exceptions_globs.o ABSOLUTE
    ../../../edgfe/lib_src/arm_exceptions.c  0x00000000   Number         0  arm_exceptions_support.o ABSOLUTE
    ../../../edgfe/lib_src/arm_exceptions.c  0x00000000   Number         0  arm_exceptions_terminate.o ABSOLUTE
    ../../../edgfe/lib_src/arm_noexceptions.c 0x00000000   Number         0  arm_begincatch_noexceptions.o ABSOLUTE
    ../../../edgfe/lib_src/arm_noexceptions.c 0x00000000   Number         0  arm_callunex_noexceptions.o ABSOLUTE
    ../../../edgfe/lib_src/arm_noexceptions.c 0x00000000   Number         0  arm_newhandler_noexceptions.o ABSOLUTE
    ../../../edgfe/lib_src/bad_alloc.c       0x00000000   Number         0  bad_alloc_what.o ABSOLUTE
    ../../../edgfe/lib_src/bad_alloc.c       0x00000000   Number         0  bad_alloc_dtor.o ABSOLUTE
    ../../../edgfe/lib_src/delete.c          0x00000000   Number         0  delete.o ABSOLUTE
    ../../../edgfe/lib_src/exception.c       0x00000000   Number         0  exception_dtor.o ABSOLUTE
    ../../../edgfe/lib_src/exception.c       0x00000000   Number         0  exception_what.o ABSOLUTE
    ../../../edgfe/lib_src/guard.c           0x00000000   Number         0  cxa_guard_release.o ABSOLUTE
    ../../../edgfe/lib_src/guard.c           0x00000000   Number         0  cxa_guard_acquire.o ABSOLUTE
    ../../../edgfe/lib_src/new.c             0x00000000   Number         0  new.o ABSOLUTE
    ../../../edgfe/lib_src/pure_virt.c       0x00000000   Number         0  pure_virt.o ABSOLUTE
    ../../../edgfe/lib_src/typeinfo.c        0x00000000   Number         0  type_info_dtor.o ABSOLUTE
    ../../../edgfe/lib_src/typeinfo.c        0x00000000   Number         0  lib_rtti_impl.o ABSOLUTE
    ../../array_helpers.cpp                  0x00000000   Number         0  aeabi_vec_ctor_nocookie_nodtor.o ABSOLUTE
    ../clib/angel/boardlib.s                 0x00000000   Number         0  boardinit2.o ABSOLUTE
    ../clib/angel/boardlib.s                 0x00000000   Number         0  boardinit3.o ABSOLUTE
    ../clib/angel/boardlib.s                 0x00000000   Number         0  boardinit1.o ABSOLUTE
    ../clib/angel/dczerorl2.s                0x00000000   Number         0  __dczerorl2.o ABSOLUTE
    ../clib/angel/handlers.s                 0x00000000   Number         0  __scatter_zi.o ABSOLUTE
    ../clib/angel/kernel.s                   0x00000000   Number         0  __rtentry2.o ABSOLUTE
    ../clib/angel/kernel.s                   0x00000000   Number         0  __rtentry.o ABSOLUTE
    ../clib/angel/kernel.s                   0x00000000   Number         0  __rtentry4.o ABSOLUTE
    ../clib/angel/rt.s                       0x00000000   Number         0  rt_heap_descriptor.o ABSOLUTE
    ../clib/angel/rt.s                       0x00000000   Number         0  rt_heap_descriptor_intlibspace.o ABSOLUTE
    ../clib/angel/rt.s                       0x00000000   Number         0  rt_new_handler_addr.o ABSOLUTE
    ../clib/angel/rt.s                       0x00000000   Number         0  rt_locale_intlibspace.o ABSOLUTE
    ../clib/angel/rt.s                       0x00000000   Number         0  rt_new_handler_addr_intlibspace.o ABSOLUTE
    ../clib/angel/rt.s                       0x00000000   Number         0  rt_errno_addr.o ABSOLUTE
    ../clib/angel/rt.s                       0x00000000   Number         0  rt_errno_addr_intlibspace.o ABSOLUTE
    ../clib/angel/rt.s                       0x00000000   Number         0  rt_ddtor_pointer_addr_intlibspace.o ABSOLUTE
    ../clib/angel/rt.s                       0x00000000   Number         0  rt_eh_globals_addr.o ABSOLUTE
    ../clib/angel/rt.s                       0x00000000   Number         0  rt_locale.o ABSOLUTE
    ../clib/angel/rt.s                       0x00000000   Number         0  rt_ddtor_pointer_addr.o ABSOLUTE
    ../clib/angel/rt.s                       0x00000000   Number         0  rt_raise.o ABSOLUTE
    ../clib/angel/rt.s                       0x00000000   Number         0  rt_ctype_table.o ABSOLUTE
    ../clib/angel/rt.s                       0x00000000   Number         0  rt_eh_globals_addr_intlibspace.o ABSOLUTE
    ../clib/angel/scatter.s                  0x00000000   Number         0  __scatter.o ABSOLUTE
    ../clib/angel/startup.s                  0x00000000   Number         0  __main.o ABSOLUTE
    ../clib/angel/sys.s                      0x00000000   Number         0  mutex_dummy.o ABSOLUTE
    ../clib/angel/sys.s                      0x00000000   Number         0  libspace.o ABSOLUTE
    ../clib/angel/sys.s                      0x00000000   Number         0  indicate_semi.o ABSOLUTE
    ../clib/angel/sys.s                      0x00000000   Number         0  use_no_semi.o ABSOLUTE
    ../clib/angel/sysapp.c                   0x00000000   Number         0  sys_exit.o ABSOLUTE
    ../clib/angel/sysapp.c                   0x00000000   Number         0  sys_wrch.o ABSOLUTE
    ../clib/arm_runtime.c                    0x00000000   Number         0  init_aeabi.o ABSOLUTE
    ../clib/arm_runtime.c                    0x00000000   Number         0  init_aeabi.o ABSOLUTE
    ../clib/armsys.c                         0x00000000   Number         0  _get_argv.o ABSOLUTE
    ../clib/armsys.c                         0x00000000   Number         0  argv_veneer.o ABSOLUTE
    ../clib/armsys.c                         0x00000000   Number         0  _get_argv_nomalloc.o ABSOLUTE
    ../clib/armsys.c                         0x00000000   Number         0  no_argv.o ABSOLUTE
    ../clib/armsys.c                         0x00000000   Number         0  argv_veneer.o ABSOLUTE
    ../clib/assert.c                         0x00000000   Number         0  assert_stdio.o ABSOLUTE
    ../clib/bigflt.c                         0x00000000   Number         0  bigflt0.o ABSOLUTE
    ../clib/btod.s                           0x00000000   Number         0  btod.o ABSOLUTE
    ../clib/ctype.c                          0x00000000   Number         0  isspace.o ABSOLUTE
    ../clib/fenv.c                           0x00000000   Number         0  _rserrno.o ABSOLUTE
    ../clib/heap1.c                          0x00000000   Number         0  h1_alloc_mt.o ABSOLUTE
    ../clib/heap1.c                          0x00000000   Number         0  h1_free.o ABSOLUTE
    ../clib/heap1.c                          0x00000000   Number         0  h1_alloc.o ABSOLUTE
    ../clib/heap1.c                          0x00000000   Number         0  h1_extend_mt.o ABSOLUTE
    ../clib/heap1.c                          0x00000000   Number         0  h1_init.o ABSOLUTE
    ../clib/heap1.c                          0x00000000   Number         0  h1_extend.o ABSOLUTE
    ../clib/heap1.c                          0x00000000   Number         0  h1_free_mt.o ABSOLUTE
    ../clib/heap1.c                          0x00000000   Number         0  h1_final_mt.o ABSOLUTE
    ../clib/heap1.c                          0x00000000   Number         0  h1_final.o ABSOLUTE
    ../clib/heap1.c                          0x00000000   Number         0  h1_init_mt.o ABSOLUTE
    ../clib/heap2.c                          0x00000000   Number         0  fdtree.o ABSOLUTE
    ../clib/heap2.c                          0x00000000   Number         0  heap2.o ABSOLUTE
    ../clib/heap2.c                          0x00000000   Number         0  heap2mt.o ABSOLUTE
    ../clib/heapalloc.c                      0x00000000   Number         0  term_alloc.o ABSOLUTE
    ../clib/heapalloc.c                      0x00000000   Number         0  maybetermalloc2.o ABSOLUTE
    ../clib/heapalloc.c                      0x00000000   Number         0  heapstubs.o ABSOLUTE
    ../clib/heapalloc.c                      0x00000000   Number         0  malloc.o ABSOLUTE
    ../clib/heapalloc.c                      0x00000000   Number         0  hrguard.o ABSOLUTE
    ../clib/heapalloc.c                      0x00000000   Number         0  maybetermalloc1.o ABSOLUTE
    ../clib/heapalloc.c                      0x00000000   Number         0  maybetermalloc1.o ABSOLUTE
    ../clib/heapalloc.c                      0x00000000   Number         0  free.o ABSOLUTE
    ../clib/heapalloc.c                      0x00000000   Number         0  init_alloc.o ABSOLUTE
    ../clib/heapalloc.c                      0x00000000   Number         0  hguard.o ABSOLUTE
    ../clib/heapalloc.c                      0x00000000   Number         0  maybetermalloc2.o ABSOLUTE
    ../clib/heapaux.c                        0x00000000   Number         0  heapauxmm.o ABSOLUTE
    ../clib/heapaux.c                        0x00000000   Number         0  heapauxa.o ABSOLUTE
    ../clib/heapaux.c                        0x00000000   Number         0  heapauxi.o ABSOLUTE
    ../clib/libinit.s                        0x00000000   Number         0  libinit.o ABSOLUTE
    ../clib/libinit.s                        0x00000000   Number         0  libshutdown2.o ABSOLUTE
    ../clib/libinit.s                        0x00000000   Number         0  libinit2.o ABSOLUTE
    ../clib/locale.c                         0x00000000   Number         0  _mbrtowc.o ABSOLUTE
    ../clib/locale.c                         0x00000000   Number         0  _wcrtomb.o ABSOLUTE
    ../clib/locale.s                         0x00000000   Number         0  lc_numeric_c.o ABSOLUTE
    ../clib/locale.s                         0x00000000   Number         0  lc_ctype_c.o ABSOLUTE
    ../clib/longlong.s                       0x00000000   Number         0  lludiv10.o ABSOLUTE
    ../clib/longlong.s                       0x00000000   Number         0  llshl.o ABSOLUTE
    ../clib/memcpset.s                       0x00000000   Number         0  rt_memcpy_v6.o ABSOLUTE
    ../clib/memcpset.s                       0x00000000   Number         0  strcmpv7m.o ABSOLUTE
    ../clib/memcpset.s                       0x00000000   Number         0  strncpy.o ABSOLUTE
    ../clib/memcpset.s                       0x00000000   Number         0  rt_memclr_w.o ABSOLUTE
    ../clib/memcpset.s                       0x00000000   Number         0  rt_memclr.o ABSOLUTE
    ../clib/memcpset.s                       0x00000000   Number         0  rt_memcpy_w.o ABSOLUTE
    ../clib/misc.s                           0x00000000   Number         0  printf_stubs.o ABSOLUTE
    ../clib/printf.c                         0x00000000   Number         0  __printf_ss_wp.o ABSOLUTE
    ../clib/printf.c                         0x00000000   Number         0  __printf_flags_wp.o ABSOLUTE
    ../clib/printf.c                         0x00000000   Number         0  _printf_char_common.o ABSOLUTE
    ../clib/printf.c                         0x00000000   Number         0  __printf_wp.o ABSOLUTE
    ../clib/printf.c                         0x00000000   Number         0  __printf_ss.o ABSOLUTE
    ../clib/printf.c                         0x00000000   Number         0  _sputc.o ABSOLUTE
    ../clib/printf.c                         0x00000000   Number         0  _printf_hex_ll_ptr.o ABSOLUTE
    ../clib/printf.c                         0x00000000   Number         0  __printf_flags.o ABSOLUTE
    ../clib/printf.c                         0x00000000   Number         0  __printf_flags_ss.o ABSOLUTE
    ../clib/printf.c                         0x00000000   Number         0  _printf_hex_ptr.o ABSOLUTE
    ../clib/printf.c                         0x00000000   Number         0  _printf_oct_int_ll.o ABSOLUTE
    ../clib/printf.c                         0x00000000   Number         0  _printf_oct_int.o ABSOLUTE
    ../clib/printf.c                         0x00000000   Number         0  _printf_wchar.o ABSOLUTE
    ../clib/printf.c                         0x00000000   Number         0  _printf_char_file_locked.o ABSOLUTE
    ../clib/printf.c                         0x00000000   Number         0  _printf_hex_int_ll_ptr.o ABSOLUTE
    ../clib/printf.c                         0x00000000   Number         0  _printf_oct_ll.o ABSOLUTE
    ../clib/printf.c                         0x00000000   Number         0  _printf_char.o ABSOLUTE
    ../clib/printf.c                         0x00000000   Number         0  __printf_nopercent.o ABSOLUTE
    ../clib/printf.c                         0x00000000   Number         0  _printf_fp_hex.o ABSOLUTE
    ../clib/printf.c                         0x00000000   Number         0  _printf_longlong_dec.o ABSOLUTE
    ../clib/printf.c                         0x00000000   Number         0  _printf_fp_dec.o ABSOLUTE
    ../clib/printf.c                         0x00000000   Number         0  _printf_charcount.o ABSOLUTE
    ../clib/printf.c                         0x00000000   Number         0  _printf_fp_infnan.o ABSOLUTE
    ../clib/printf.c                         0x00000000   Number         0  _printf_wctomb.o ABSOLUTE
    ../clib/printf.c                         0x00000000   Number         0  _printf_char_file.o ABSOLUTE
    ../clib/printf.c                         0x00000000   Number         0  __printf_flags_ss_wp.o ABSOLUTE
    ../clib/printf.c                         0x00000000   Number         0  _printf_hex_int_ptr.o ABSOLUTE
    ../clib/printf.c                         0x00000000   Number         0  _printf_hex_int_ll.o ABSOLUTE
    ../clib/printf.c                         0x00000000   Number         0  _printf_hex_int.o ABSOLUTE
    ../clib/printf.c                         0x00000000   Number         0  _printf_str.o ABSOLUTE
    ../clib/printf.c                         0x00000000   Number         0  _printf_hex_ll.o ABSOLUTE
    ../clib/printf.c                         0x00000000   Number         0  __printf.o ABSOLUTE
    ../clib/printf.c                         0x00000000   Number         0  noretval__2sprintf.o ABSOLUTE
    ../clib/printf.c                         0x00000000   Number         0  _printf_intcommon.o ABSOLUTE
    ../clib/printf.c                         0x00000000   Number         0  _printf_truncate.o ABSOLUTE
    ../clib/printf.c                         0x00000000   Number         0  __2sprintf.o ABSOLUTE
    ../clib/printf.c                         0x00000000   Number         0  _printf_pad.o ABSOLUTE
    ../clib/printf.c                         0x00000000   Number         0  c89vfprintf.o ABSOLUTE
    ../clib/printf.c                         0x00000000   Number         0  vfprintf.o ABSOLUTE
    ../clib/printf.c                         0x00000000   Number         0  _printf_dec.o ABSOLUTE
    ../clib/printf_percent.s                 0x00000000   Number         0  _printf_g.o ABSOLUTE
    ../clib/printf_percent.s                 0x00000000   Number         0  _printf_ll.o ABSOLUTE
    ../clib/printf_percent.s                 0x00000000   Number         0  _printf_o.o ABSOLUTE
    ../clib/printf_percent.s                 0x00000000   Number         0  _printf_x.o ABSOLUTE
    ../clib/printf_percent.s                 0x00000000   Number         0  _printf_a.o ABSOLUTE
    ../clib/printf_percent.s                 0x00000000   Number         0  _printf_n.o ABSOLUTE
    ../clib/printf_percent.s                 0x00000000   Number         0  _printf_percent_end.o ABSOLUTE
    ../clib/printf_percent.s                 0x00000000   Number         0  _printf_s.o ABSOLUTE
    ../clib/printf_percent.s                 0x00000000   Number         0  _printf_c.o ABSOLUTE
    ../clib/printf_percent.s                 0x00000000   Number         0  _printf_lli.o ABSOLUTE
    ../clib/printf_percent.s                 0x00000000   Number         0  _printf_lld.o ABSOLUTE
    ../clib/printf_percent.s                 0x00000000   Number         0  _printf_llu.o ABSOLUTE
    ../clib/printf_percent.s                 0x00000000   Number         0  _printf_ls.o ABSOLUTE
    ../clib/printf_percent.s                 0x00000000   Number         0  _printf_percent.o ABSOLUTE
    ../clib/printf_percent.s                 0x00000000   Number         0  _printf_u.o ABSOLUTE
    ../clib/printf_percent.s                 0x00000000   Number         0  _printf_d.o ABSOLUTE
    ../clib/printf_percent.s                 0x00000000   Number         0  _printf_f.o ABSOLUTE
    ../clib/printf_percent.s                 0x00000000   Number         0  _printf_llx.o ABSOLUTE
    ../clib/printf_percent.s                 0x00000000   Number         0  _printf_lc.o ABSOLUTE
    ../clib/printf_percent.s                 0x00000000   Number         0  _printf_llo.o ABSOLUTE
    ../clib/printf_percent.s                 0x00000000   Number         0  _printf_i.o ABSOLUTE
    ../clib/printf_percent.s                 0x00000000   Number         0  _printf_l.o ABSOLUTE
    ../clib/printf_percent.s                 0x00000000   Number         0  _printf_p.o ABSOLUTE
    ../clib/printf_percent.s                 0x00000000   Number         0  _printf_e.o ABSOLUTE
    ../clib/scanf.c                          0x00000000   Number         0  _scanf_mbtowc.o ABSOLUTE
    ../clib/scanf.c                          0x00000000   Number         0  _scanf_wctomb.o ABSOLUTE
    ../clib/scanf.c                          0x00000000   Number         0  _scanf_wstr.o ABSOLUTE
    ../clib/scanf.c                          0x00000000   Number         0  vfscanf.o ABSOLUTE
    ../clib/scanf.c                          0x00000000   Number         0  scanf_hexfp.o ABSOLUTE
    ../clib/scanf.c                          0x00000000   Number         0  __0sscanf.o ABSOLUTE
    ../clib/scanf.c                          0x00000000   Number         0  _scanf_str.o ABSOLUTE
    ../clib/scanf.c                          0x00000000   Number         0  scanf_char.o ABSOLUTE
    ../clib/scanf.c                          0x00000000   Number         0  scanf_infnan.o ABSOLUTE
    ../clib/scanf.c                          0x00000000   Number         0  _chval.o ABSOLUTE
    ../clib/scanf.c                          0x00000000   Number         0  _scanf_longlong.o ABSOLUTE
    ../clib/scanf.c                          0x00000000   Number         0  scanf_fp.o ABSOLUTE
    ../clib/scanf.c                          0x00000000   Number         0  _scanf_wcharmap.o ABSOLUTE
    ../clib/scanf.c                          0x00000000   Number         0  scanf_char_file_locked.o ABSOLUTE
    ../clib/scanf.c                          0x00000000   Number         0  _sgetc.o ABSOLUTE
    ../clib/scanf.c                          0x00000000   Number         0  _scanf_int.o ABSOLUTE
    ../clib/scanf.c                          0x00000000   Number         0  scanf_char_file.o ABSOLUTE
    ../clib/scanf.c                          0x00000000   Number         0  _scanf.o ABSOLUTE
    ../clib/signal.c                         0x00000000   Number         0  defsig_pvfn_outer.o ABSOLUTE
    ../clib/signal.c                         0x00000000   Number         0  defsig_pvfn_formal.o ABSOLUTE
    ../clib/signal.c                         0x00000000   Number         0  defsig_exit.o ABSOLUTE
    ../clib/signal.c                         0x00000000   Number         0  defsig_other.o ABSOLUTE
    ../clib/signal.c                         0x00000000   Number         0  defsig_segv_inner.o ABSOLUTE
    ../clib/signal.c                         0x00000000   Number         0  defsig_cppl_inner.o ABSOLUTE
    ../clib/signal.c                         0x00000000   Number         0  defsig_stak_inner.o ABSOLUTE
    ../clib/signal.c                         0x00000000   Number         0  defsig_fpe_inner.o ABSOLUTE
    ../clib/signal.c                         0x00000000   Number         0  defsig_abrt_inner.o ABSOLUTE
    ../clib/signal.c                         0x00000000   Number         0  defsig_abrt_formal.o ABSOLUTE
    ../clib/signal.c                         0x00000000   Number         0  defsig_abrt_outer.o ABSOLUTE
    ../clib/signal.c                         0x00000000   Number         0  defsig_rtmem_inner.o ABSOLUTE
    ../clib/signal.c                         0x00000000   Number         0  defsig_rtred_inner.o ABSOLUTE
    ../clib/signal.c                         0x00000000   Number         0  defsig_general.o ABSOLUTE
    ../clib/signal.c                         0x00000000   Number         0  __raise.o ABSOLUTE
    ../clib/signal.c                         0x00000000   Number         0  defsig_pvfn_inner.o ABSOLUTE
    ../clib/signal.c                         0x00000000   Number         0  defsig_rtmem_formal.o ABSOLUTE
    ../clib/signal.c                         0x00000000   Number         0  defsig_rtmem_outer.o ABSOLUTE
    ../clib/signal.c                         0x00000000   Number         0  defsig_rtred_formal.o ABSOLUTE
    ../clib/signal.c                         0x00000000   Number         0  defsig_rtred_outer.o ABSOLUTE
    ../clib/signal.s                         0x00000000   Number         0  defsig.o ABSOLUTE
    ../clib/stdio.c                          0x00000000   Number         0  ungetc.o ABSOLUTE
    ../clib/stdio.c                          0x00000000   Number         0  fflush.o ABSOLUTE
    ../clib/stdio.c                          0x00000000   Number         0  fgetc.o ABSOLUTE
    ../clib/stdio.c                          0x00000000   Number         0  fgets.o ABSOLUTE
    ../clib/stdio.c                          0x00000000   Number         0  fputc.o ABSOLUTE
    ../clib/stdio.c                          0x00000000   Number         0  fputs.o ABSOLUTE
    ../clib/stdio.c                          0x00000000   Number         0  fopen.o ABSOLUTE
    ../clib/stdio.c                          0x00000000   Number         0  setbuf.o ABSOLUTE
    ../clib/stdio.c                          0x00000000   Number         0  fopen_locked.o ABSOLUTE
    ../clib/stdio.c                          0x00000000   Number         0  setvbuf_locked.o ABSOLUTE
    ../clib/stdio.c                          0x00000000   Number         0  fflush_locked.o ABSOLUTE
    ../clib/stdio.c                          0x00000000   Number         0  ferror.o ABSOLUTE
    ../clib/stdio.c                          0x00000000   Number         0  fclose_locked.o ABSOLUTE
    ../clib/stdio.c                          0x00000000   Number         0  fputc_locked.o ABSOLUTE
    ../clib/stdio.c                          0x00000000   Number         0  filbuf.o ABSOLUTE
    ../clib/stdio.c                          0x00000000   Number         0  flsbuf.o ABSOLUTE
    ../clib/stdio.c                          0x00000000   Number         0  ferror_locked.o ABSOLUTE
    ../clib/stdio.c                          0x00000000   Number         0  fseek.o ABSOLUTE
    ../clib/stdio.c                          0x00000000   Number         0  setvbuf.o ABSOLUTE
    ../clib/stdio.c                          0x00000000   Number         0  fgetc_locked.o ABSOLUTE
    ../clib/stdio.c                          0x00000000   Number         0  freadfast.o ABSOLUTE
    ../clib/stdio.c                          0x00000000   Number         0  fread_bytes_avail.o ABSOLUTE
    ../clib/stdio.c                          0x00000000   Number         0  fwritefast.o ABSOLUTE
    ../clib/stdio.c                          0x00000000   Number         0  fputs_locked.o ABSOLUTE
    ../clib/stdio.c                          0x00000000   Number         0  flushlinebuffered_locked.o ABSOLUTE
    ../clib/stdio.c                          0x00000000   Number         0  fwritefast_locked.o ABSOLUTE
    ../clib/stdio.c                          0x00000000   Number         0  fread_bytes_avail_locked.o ABSOLUTE
    ../clib/stdio.c                          0x00000000   Number         0  freadfast_locked.o ABSOLUTE
    ../clib/stdio.c                          0x00000000   Number         0  backspace_locked.o ABSOLUTE
    ../clib/stdio.c                          0x00000000   Number         0  fclose.o ABSOLUTE
    ../clib/stdio.c                          0x00000000   Number         0  fgets_locked.o ABSOLUTE
    ../clib/stdio.c                          0x00000000   Number         0  initio.o ABSOLUTE
    ../clib/stdio.c                          0x00000000   Number         0  stdio_streams.o ABSOLUTE
    ../clib/stdio.c                          0x00000000   Number         0  streamlock.o ABSOLUTE
    ../clib/stdio.c                          0x00000000   Number         0  flushlinebuffered.o ABSOLUTE
    ../clib/stdio.c                          0x00000000   Number         0  stdio.o ABSOLUTE
    ../clib/stdio.c                          0x00000000   Number         0  ftell.o ABSOLUTE
    ../clib/stdio.c                          0x00000000   Number         0  backspace.o ABSOLUTE
    ../clib/stdio.c                          0x00000000   Number         0  initio_locked.o ABSOLUTE
    ../clib/stdlib.c                         0x00000000   Number         0  abort.o ABSOLUTE
    ../clib/stdlib.c                         0x00000000   Number         0  bsearchnoex.o ABSOLUTE
    ../clib/stdlib.c                         0x00000000   Number         0  cxa_finalize.o ABSOLUTE
    ../clib/stdlib.c                         0x00000000   Number         0  atexit_aeabi.o ABSOLUTE
    ../clib/stdlib.c                         0x00000000   Number         0  aeabi_atexit.o ABSOLUTE
    ../clib/string.c                         0x00000000   Number         0  strncmp.o ABSOLUTE
    ../clib/string.c                         0x00000000   Number         0  strlen.o ABSOLUTE
    ../clib/time.c                           0x00000000   Number         0  _monlen.o ABSOLUTE
    ../clib/time.c                           0x00000000   Number         0  localtime_internal.o ABSOLUTE
    ../clib/time.c                           0x00000000   Number         0  mktime.o ABSOLUTE
    ../clib/time.c                           0x00000000   Number         0  localtime.o ABSOLUTE
    ../clib/wchar.c                          0x00000000   Number         0  flsbuf_fwide.o ABSOLUTE
    ../clib/wchar.c                          0x00000000   Number         0  filbuf_fwide.o ABSOLUTE
    ../fplib/basic.s                         0x00000000   Number         0  basic.o ABSOLUTE
    ../fplib/d2f.s                           0x00000000   Number         0  d2f.o ABSOLUTE
    ../fplib/daddsub.s                       0x00000000   Number         0  daddsub_clz.o ABSOLUTE
    ../fplib/dcheck1.s                       0x00000000   Number         0  dcheck1.o ABSOLUTE
    ../fplib/dcmpi.s                         0x00000000   Number         0  dcmpi.o ABSOLUTE
    ../fplib/ddiv.s                          0x00000000   Number         0  ddiv.o ABSOLUTE
    ../fplib/deqf.s                          0x00000000   Number         0  deqf.o ABSOLUTE
    ../fplib/dfix.s                          0x00000000   Number         0  dfix.o ABSOLUTE
    ../fplib/dflt.s                          0x00000000   Number         0  dflt_clz.o ABSOLUTE
    ../fplib/dleqf.s                         0x00000000   Number         0  dleqf.o ABSOLUTE
    ../fplib/dmul.s                          0x00000000   Number         0  dmul.o ABSOLUTE
    ../fplib/dnaninf.s                       0x00000000   Number         0  dnaninf.o ABSOLUTE
    ../fplib/dretinf.s                       0x00000000   Number         0  dretinf.o ABSOLUTE
    ../fplib/drleqf.s                        0x00000000   Number         0  drleqf.o ABSOLUTE
    ../fplib/f2d.s                           0x00000000   Number         0  f2d.o ABSOLUTE
    ../fplib/fnaninf.s                       0x00000000   Number         0  fnaninf.o ABSOLUTE
    ../fplib/fpconst.s                       0x00000000   Number         0  fpconst.o ABSOLUTE
    ../fplib/fpinit.s                        0x00000000   Number         0  fpinit.o ABSOLUTE
    ../fplib/fretinf.s                       0x00000000   Number         0  fretinf.o ABSOLUTE
    ../fplib/istatus.s                       0x00000000   Number         0  istatus.o ABSOLUTE
    ../fplib/printf1.s                       0x00000000   Number         0  printf1.o ABSOLUTE
    ../fplib/printf2.s                       0x00000000   Number         0  printf2.o ABSOLUTE
    ../fplib/printf2a.s                      0x00000000   Number         0  printf2a.o ABSOLUTE
    ../fplib/printf2b.s                      0x00000000   Number         0  printf2b.o ABSOLUTE
    ../fplib/retnan.s                        0x00000000   Number         0  retnan.o ABSOLUTE
    ../fplib/scalbn.s                        0x00000000   Number         0  scalbn.o ABSOLUTE
    ../fplib/scanf1.s                        0x00000000   Number         0  scanf1.o ABSOLUTE
    ../fplib/scanf2.s                        0x00000000   Number         0  scanf2.o ABSOLUTE
    ../fplib/scanf2a.s                       0x00000000   Number         0  scanf2a.o ABSOLUTE
    ../fplib/scanf2b.s                       0x00000000   Number         0  scanf2b.o ABSOLUTE
    ../fplib/trapv.s                         0x00000000   Number         0  trapv.o ABSOLUTE
    ../fplib/usenofp.s                       0x00000000   Number         0  usenofp.o ABSOLUTE
    ../mathlib/atan2f.c                      0x00000000   Number         0  atan2f_x.o ABSOLUTE
    ../mathlib/atan2f.c                      0x00000000   Number         0  atan2f.o ABSOLUTE
    ../mathlib/cos.c                         0x00000000   Number         0  cos.o ABSOLUTE
    ../mathlib/cos.c                         0x00000000   Number         0  cos_x.o ABSOLUTE
    ../mathlib/cos_i.c                       0x00000000   Number         0  cos_i.o ABSOLUTE
    ../mathlib/cosf.c                        0x00000000   Number         0  cosf.o ABSOLUTE
    ../mathlib/cosf.c                        0x00000000   Number         0  cosf_x.o ABSOLUTE
    ../mathlib/dunder.c                      0x00000000   Number         0  dunder.o ABSOLUTE
    ../mathlib/fabs.c                        0x00000000   Number         0  fabs.o ABSOLUTE
    ../mathlib/fpclassify.c                  0x00000000   Number         0  fpclassify.o ABSOLUTE
    ../mathlib/fpclassifyf.c                 0x00000000   Number         0  fpclassifyf.o ABSOLUTE
    ../mathlib/frexp.c                       0x00000000   Number         0  frexp.o ABSOLUTE
    ../mathlib/funder.c                      0x00000000   Number         0  funder.o ABSOLUTE
    ../mathlib/ldexp.c                       0x00000000   Number         0  ldexp_x.o ABSOLUTE
    ../mathlib/ldexp.c                       0x00000000   Number         0  ldexp.o ABSOLUTE
    ../mathlib/narrow.c                      0x00000000   Number         0  narrow.o ABSOLUTE
    ../mathlib/poly.c                        0x00000000   Number         0  poly.o ABSOLUTE
    ../mathlib/qnan.c                        0x00000000   Number         0  qnan.o ABSOLUTE
    ../mathlib/rred.c                        0x00000000   Number         0  rred.o ABSOLUTE
    ../mathlib/rredf.c                       0x00000000   Number         0  rredf.o ABSOLUTE
    ../mathlib/sin.c                         0x00000000   Number         0  sin_x.o ABSOLUTE
    ../mathlib/sin.c                         0x00000000   Number         0  sin.o ABSOLUTE
    ../mathlib/sin_i.c                       0x00000000   Number         0  sin_i_x.o ABSOLUTE
    ../mathlib/sin_i.c                       0x00000000   Number         0  sin_i.o ABSOLUTE
    ../mathlib/sinf.c                        0x00000000   Number         0  sinf.o ABSOLUTE
    ../mathlib/sinf.c                        0x00000000   Number         0  sinf_x.o ABSOLUTE
    ..\\mbed_nxp_lpc408x\\targets\\cmsis\\TARGET_NXP\\TARGET_LPC408X\\cmsis_nvic.c 0x00000000   Number         0  cmsis_nvic.o ABSOLUTE
    ..\\mbed_nxp_lpc408x\\targets\\cmsis\\TARGET_NXP\\TARGET_LPC408X\\system_LPC407x_8x_177x_8x.c 0x00000000   Number         0  system_lpc407x_8x_177x_8x.o ABSOLUTE
    ..\mbed_nxp_lpc408x\targets\cmsis\TARGET_NXP\TARGET_LPC408X\TOOLCHAIN_ARM_STD\startup_LPC407x_8x_177x_8x.S 0x00000000   Number         0  startup_lpc407x_8x_177x_8x.o ABSOLUTE
    ..\mbed_nxp_lpc408x\targets\cmsis\TARGET_NXP\TARGET_LPC408X\TOOLCHAIN_ARM_STD\sys.cpp 0x00000000   Number         0  sys.o ABSOLUTE
    ..\mbed_nxp_lpc408x\targets\cmsis\TARGET_NXP\TARGET_LPC408X\TOOLCHAIN_ARM_STD\sys_helper.cpp 0x00000000   Number         0  sys_helper.o ABSOLUTE
    ..\mbed_nxp_lpc408x\targets\cmsis\TARGET_NXP\TARGET_LPC408X\cmsis_nvic.c 0x00000000   Number         0  cmsis_nvic.o ABSOLUTE
    ..\mbed_nxp_lpc408x\targets\cmsis\TARGET_NXP\TARGET_LPC408X\system_LPC407x_8x_177x_8x.c 0x00000000   Number         0  system_lpc407x_8x_177x_8x.o ABSOLUTE
    EALib\Adafruit_GFX.cpp                   0x00000000   Number         0  adafruit_gfx.o ABSOLUTE
    EALib\EaLcdBoard.cpp                     0x00000000   Number         0  ealcdboard.o ABSOLUTE
    EALib\GFXFb.cpp                          0x00000000   Number         0  gfxfb.o ABSOLUTE
    EALib\LcdController.cpp                  0x00000000   Number         0  lcdcontroller.o ABSOLUTE
    EALib\MMA7455.cpp                        0x00000000   Number         0  mma7455.o ABSOLUTE
    EALib\\Adafruit_GFX.cpp                  0x00000000   Number         0  adafruit_gfx.o ABSOLUTE
    EALib\\EaLcdBoard.cpp                    0x00000000   Number         0  ealcdboard.o ABSOLUTE
    EALib\\GFXFb.cpp                         0x00000000   Number         0  gfxfb.o ABSOLUTE
    EALib\\LcdController.cpp                 0x00000000   Number         0  lcdcontroller.o ABSOLUTE
    EALib\\MMA7455.cpp                       0x00000000   Number         0  mma7455.o ABSOLUTE
    EALib\\sdram.cpp                         0x00000000   Number         0  sdram.o ABSOLUTE
    EALib\sdram.cpp                          0x00000000   Number         0  sdram.o ABSOLUTE
    EaLcdBoardGPIO.cpp                       0x00000000   Number         0  ealcdboardgpio.o ABSOLUTE
    EaLcdBoardGPIO.cpp                       0x00000000   Number         0  ealcdboardgpio.o ABSOLUTE
    LM75B\LM75B.cpp                          0x00000000   Number         0  lm75b.o ABSOLUTE
    LM75B\\LM75B.cpp                         0x00000000   Number         0  lm75b.o ABSOLUTE
    common\Ethernet.cpp                      0x00000000   Number         0  ethernet.o ABSOLUTE
    common\FileBase.cpp                      0x00000000   Number         0  filebase.o ABSOLUTE
    common\FileLike.cpp                      0x00000000   Number         0  filelike.o ABSOLUTE
    common\FilePath.cpp                      0x00000000   Number         0  filepath.o ABSOLUTE
    common\FileSystemLike.cpp                0x00000000   Number         0  filesystemlike.o ABSOLUTE
    common\I2C.cpp                           0x00000000   Number         0  i2c.o ABSOLUTE
    common\Stream.cpp                        0x00000000   Number         0  stream.o ABSOLUTE
    common\\Ethernet.cpp                     0x00000000   Number         0  ethernet.o ABSOLUTE
    common\\FileBase.cpp                     0x00000000   Number         0  filebase.o ABSOLUTE
    common\\FileLike.cpp                     0x00000000   Number         0  filelike.o ABSOLUTE
    common\\FilePath.cpp                     0x00000000   Number         0  filepath.o ABSOLUTE
    common\\FileSystemLike.cpp               0x00000000   Number         0  filesystemlike.o ABSOLUTE
    common\\I2C.cpp                          0x00000000   Number         0  i2c.o ABSOLUTE
    common\\Stream.cpp                       0x00000000   Number         0  stream.o ABSOLUTE
    common\\board.c                          0x00000000   Number         0  board.o ABSOLUTE
    common\\error.c                          0x00000000   Number         0  error.o ABSOLUTE
    common\\gpio.c                           0x00000000   Number         0  gpio.o ABSOLUTE
    common\\pinmap_common.c                  0x00000000   Number         0  pinmap_common.o ABSOLUTE
    common\\retarget.cpp                     0x00000000   Number         0  retarget.o ABSOLUTE
    common\\rtc_time.c                       0x00000000   Number         0  rtc_time.o ABSOLUTE
    common\\ticker_api.c                     0x00000000   Number         0  ticker_api.o ABSOLUTE
    common\\us_ticker_api.c                  0x00000000   Number         0  us_ticker_api.o ABSOLUTE
    common\\wait_api.c                       0x00000000   Number         0  wait_api.o ABSOLUTE
    common\assert.c                          0x00000000   Number         0  assert.o ABSOLUTE
    common\board.c                           0x00000000   Number         0  board.o ABSOLUTE
    common\error.c                           0x00000000   Number         0  error.o ABSOLUTE
    common\gpio.c                            0x00000000   Number         0  gpio.o ABSOLUTE
    common\pinmap_common.c                   0x00000000   Number         0  pinmap_common.o ABSOLUTE
    common\retarget.cpp                      0x00000000   Number         0  retarget.o ABSOLUTE
    common\rtc_time.c                        0x00000000   Number         0  rtc_time.o ABSOLUTE
    common\ticker_api.c                      0x00000000   Number         0  ticker_api.o ABSOLUTE
    common\us_ticker_api.c                   0x00000000   Number         0  us_ticker_api.o ABSOLUTE
    common\wait_api.c                        0x00000000   Number         0  wait_api.o ABSOLUTE
    dc.s                                     0x00000000   Number         0  dc.o ABSOLUTE
    display.cpp                              0x00000000   Number         0  display.o ABSOLUTE
    display.cpp                              0x00000000   Number         0  display.o ABSOLUTE
    src\Ball.cpp                             0x00000000   Number         0  ball.o ABSOLUTE
    src\Cue.cpp                              0x00000000   Number         0  cue.o ABSOLUTE
    src\Game.cpp                             0x00000000   Number         0  game.o ABSOLUTE
    src\Interface.cpp                        0x00000000   Number         0  interface.o ABSOLUTE
    src\Matrix3x3.cpp                        0x00000000   Number         0  matrix3x3.o ABSOLUTE
    src\Physics.cpp                          0x00000000   Number         0  physics.o ABSOLUTE
    src\Shot.cpp                             0x00000000   Number         0  shot.o ABSOLUTE
    src\Table.cpp                            0x00000000   Number         0  table.o ABSOLUTE
    src\Vector.cpp                           0x00000000   Number         0  vector.o ABSOLUTE
    src\\Ball.cpp                            0x00000000   Number         0  ball.o ABSOLUTE
    src\\Cue.cpp                             0x00000000   Number         0  cue.o ABSOLUTE
    src\\Game.cpp                            0x00000000   Number         0  game.o ABSOLUTE
    src\\Interface.cpp                       0x00000000   Number         0  interface.o ABSOLUTE
    src\\Physics.cpp                         0x00000000   Number         0  physics.o ABSOLUTE
    src\\Table.cpp                           0x00000000   Number         0  table.o ABSOLUTE
    src\\main.cpp                            0x00000000   Number         0  main.o ABSOLUTE
    src\main.cpp                             0x00000000   Number         0  main.o ABSOLUTE
    targets\\hal\\TARGET_NXP\\TARGET_LPC408X\\TARGET_LPC4088\\analogin_api.c 0x00000000   Number         0  analogin_api.o ABSOLUTE
    targets\\hal\\TARGET_NXP\\TARGET_LPC408X\\TARGET_LPC4088\\ethernet_api.c 0x00000000   Number         0  ethernet_api.o ABSOLUTE
    targets\\hal\\TARGET_NXP\\TARGET_LPC408X\\TARGET_LPC4088\\i2c_api.c 0x00000000   Number         0  i2c_api.o ABSOLUTE
    targets\\hal\\TARGET_NXP\\TARGET_LPC408X\\TARGET_LPC4088\\pwmout_api.c 0x00000000   Number         0  pwmout_api.o ABSOLUTE
    targets\\hal\\TARGET_NXP\\TARGET_LPC408X\\TARGET_LPC4088\\serial_api.c 0x00000000   Number         0  serial_api.o ABSOLUTE
    targets\\hal\\TARGET_NXP\\TARGET_LPC408X\\gpio_api.c 0x00000000   Number         0  gpio_api.o ABSOLUTE
    targets\\hal\\TARGET_NXP\\TARGET_LPC408X\\pinmap.c 0x00000000   Number         0  pinmap.o ABSOLUTE
    targets\\hal\\TARGET_NXP\\TARGET_LPC408X\\rtc_api.c 0x00000000   Number         0  rtc_api.o ABSOLUTE
    targets\\hal\\TARGET_NXP\\TARGET_LPC408X\\us_ticker.c 0x00000000   Number         0  us_ticker.o ABSOLUTE
    targets\hal\TARGET_NXP\TARGET_LPC408X\TARGET_LPC4088\analogin_api.c 0x00000000   Number         0  analogin_api.o ABSOLUTE
    targets\hal\TARGET_NXP\TARGET_LPC408X\TARGET_LPC4088\ethernet_api.c 0x00000000   Number         0  ethernet_api.o ABSOLUTE
    targets\hal\TARGET_NXP\TARGET_LPC408X\TARGET_LPC4088\i2c_api.c 0x00000000   Number         0  i2c_api.o ABSOLUTE
    targets\hal\TARGET_NXP\TARGET_LPC408X\TARGET_LPC4088\pwmout_api.c 0x00000000   Number         0  pwmout_api.o ABSOLUTE
    targets\hal\TARGET_NXP\TARGET_LPC408X\TARGET_LPC4088\serial_api.c 0x00000000   Number         0  serial_api.o ABSOLUTE
    targets\hal\TARGET_NXP\TARGET_LPC408X\gpio_api.c 0x00000000   Number         0  gpio_api.o ABSOLUTE
    targets\hal\TARGET_NXP\TARGET_LPC408X\pinmap.c 0x00000000   Number         0  pinmap.o ABSOLUTE
    targets\hal\TARGET_NXP\TARGET_LPC408X\rtc_api.c 0x00000000   Number         0  rtc_api.o ABSOLUTE
    targets\hal\TARGET_NXP\TARGET_LPC408X\us_ticker.c 0x00000000   Number         0  us_ticker.o ABSOLUTE
    !!!main                                  0x000000e4   Section        8  __main.o(!!!main)
    !!!scatter                               0x000000ec   Section       52  __scatter.o(!!!scatter)
    !!dczerorl2                              0x00000120   Section       90  __dczerorl2.o(!!dczerorl2)
    !!handler_zi                             0x0000017c   Section       28  __scatter_zi.o(!!handler_zi)
    .ARM.Collect$$_printf_percent$$00000000  0x00000198   Section        0  _printf_percent.o(.ARM.Collect$$_printf_percent$$00000000)
    .ARM.Collect$$_printf_percent$$00000001  0x00000198   Section        6  _printf_n.o(.ARM.Collect$$_printf_percent$$00000001)
    .ARM.Collect$$_printf_percent$$00000002  0x0000019e   Section        6  _printf_p.o(.ARM.Collect$$_printf_percent$$00000002)
    .ARM.Collect$$_printf_percent$$00000003  0x000001a4   Section        6  _printf_f.o(.ARM.Collect$$_printf_percent$$00000003)
    .ARM.Collect$$_printf_percent$$00000004  0x000001aa   Section        6  _printf_e.o(.ARM.Collect$$_printf_percent$$00000004)
    .ARM.Collect$$_printf_percent$$00000005  0x000001b0   Section        6  _printf_g.o(.ARM.Collect$$_printf_percent$$00000005)
    .ARM.Collect$$_printf_percent$$00000006  0x000001b6   Section        6  _printf_a.o(.ARM.Collect$$_printf_percent$$00000006)
    .ARM.Collect$$_printf_percent$$00000007  0x000001bc   Section       10  _printf_ll.o(.ARM.Collect$$_printf_percent$$00000007)
    .ARM.Collect$$_printf_percent$$00000008  0x000001c6   Section        6  _printf_i.o(.ARM.Collect$$_printf_percent$$00000008)
    .ARM.Collect$$_printf_percent$$00000009  0x000001cc   Section        6  _printf_d.o(.ARM.Collect$$_printf_percent$$00000009)
    .ARM.Collect$$_printf_percent$$0000000A  0x000001d2   Section        6  _printf_u.o(.ARM.Collect$$_printf_percent$$0000000A)
    .ARM.Collect$$_printf_percent$$0000000B  0x000001d8   Section        6  _printf_o.o(.ARM.Collect$$_printf_percent$$0000000B)
    .ARM.Collect$$_printf_percent$$0000000C  0x000001de   Section        6  _printf_x.o(.ARM.Collect$$_printf_percent$$0000000C)
    .ARM.Collect$$_printf_percent$$0000000D  0x000001e4   Section        6  _printf_lli.o(.ARM.Collect$$_printf_percent$$0000000D)
    .ARM.Collect$$_printf_percent$$0000000E  0x000001ea   Section        6  _printf_lld.o(.ARM.Collect$$_printf_percent$$0000000E)
    .ARM.Collect$$_printf_percent$$0000000F  0x000001f0   Section        6  _printf_llu.o(.ARM.Collect$$_printf_percent$$0000000F)
    .ARM.Collect$$_printf_percent$$00000010  0x000001f6   Section        6  _printf_llo.o(.ARM.Collect$$_printf_percent$$00000010)
    .ARM.Collect$$_printf_percent$$00000011  0x000001fc   Section        6  _printf_llx.o(.ARM.Collect$$_printf_percent$$00000011)
    .ARM.Collect$$_printf_percent$$00000012  0x00000202   Section       10  _printf_l.o(.ARM.Collect$$_printf_percent$$00000012)
    .ARM.Collect$$_printf_percent$$00000013  0x0000020c   Section        6  _printf_c.o(.ARM.Collect$$_printf_percent$$00000013)
    .ARM.Collect$$_printf_percent$$00000014  0x00000212   Section        6  _printf_s.o(.ARM.Collect$$_printf_percent$$00000014)
    .ARM.Collect$$_printf_percent$$00000015  0x00000218   Section        6  _printf_lc.o(.ARM.Collect$$_printf_percent$$00000015)
    .ARM.Collect$$_printf_percent$$00000016  0x0000021e   Section        6  _printf_ls.o(.ARM.Collect$$_printf_percent$$00000016)
    .ARM.Collect$$_printf_percent$$00000017  0x00000224   Section        4  _printf_percent_end.o(.ARM.Collect$$_printf_percent$$00000017)
    .ARM.Collect$$libinit$$00000000          0x00000228   Section        2  libinit.o(.ARM.Collect$$libinit$$00000000)
    .ARM.Collect$$libinit$$00000001          0x0000022a   Section        4  libinit2.o(.ARM.Collect$$libinit$$00000001)
    .ARM.Collect$$libinit$$00000004          0x0000022e   Section        0  libinit2.o(.ARM.Collect$$libinit$$00000004)
    .ARM.Collect$$libinit$$00000005          0x0000022e   Section        8  libinit2.o(.ARM.Collect$$libinit$$00000005)
    .ARM.Collect$$libinit$$0000000A          0x00000236   Section        0  libinit2.o(.ARM.Collect$$libinit$$0000000A)
    .ARM.Collect$$libinit$$0000000C          0x00000236   Section        0  libinit2.o(.ARM.Collect$$libinit$$0000000C)
    .ARM.Collect$$libinit$$0000000E          0x00000236   Section        0  libinit2.o(.ARM.Collect$$libinit$$0000000E)
    .ARM.Collect$$libinit$$0000000F          0x00000236   Section        6  libinit2.o(.ARM.Collect$$libinit$$0000000F)
    .ARM.Collect$$libinit$$00000011          0x0000023c   Section        0  libinit2.o(.ARM.Collect$$libinit$$00000011)
    .ARM.Collect$$libinit$$00000012          0x0000023c   Section       12  libinit2.o(.ARM.Collect$$libinit$$00000012)
    .ARM.Collect$$libinit$$00000013          0x00000248   Section        0  libinit2.o(.ARM.Collect$$libinit$$00000013)
    .ARM.Collect$$libinit$$00000015          0x00000248   Section        0  libinit2.o(.ARM.Collect$$libinit$$00000015)
    .ARM.Collect$$libinit$$00000016          0x00000248   Section       10  libinit2.o(.ARM.Collect$$libinit$$00000016)
    .ARM.Collect$$libinit$$00000017          0x00000252   Section        0  libinit2.o(.ARM.Collect$$libinit$$00000017)
    .ARM.Collect$$libinit$$00000019          0x00000252   Section        0  libinit2.o(.ARM.Collect$$libinit$$00000019)
    .ARM.Collect$$libinit$$0000001B          0x00000252   Section        0  libinit2.o(.ARM.Collect$$libinit$$0000001B)
    .ARM.Collect$$libinit$$0000001D          0x00000252   Section        0  libinit2.o(.ARM.Collect$$libinit$$0000001D)
    .ARM.Collect$$libinit$$0000001F          0x00000252   Section        0  libinit2.o(.ARM.Collect$$libinit$$0000001F)
    .ARM.Collect$$libinit$$00000021          0x00000252   Section        0  libinit2.o(.ARM.Collect$$libinit$$00000021)
    .ARM.Collect$$libinit$$00000023          0x00000252   Section        0  libinit2.o(.ARM.Collect$$libinit$$00000023)
    .ARM.Collect$$libinit$$00000024          0x00000252   Section        4  libinit2.o(.ARM.Collect$$libinit$$00000024)
    .ARM.Collect$$libinit$$00000025          0x00000256   Section        0  libinit2.o(.ARM.Collect$$libinit$$00000025)
    .ARM.Collect$$libinit$$0000002C          0x00000256   Section        0  libinit2.o(.ARM.Collect$$libinit$$0000002C)
    .ARM.Collect$$libinit$$0000002E          0x00000256   Section        0  libinit2.o(.ARM.Collect$$libinit$$0000002E)
    .ARM.Collect$$libinit$$00000030          0x00000256   Section        0  libinit2.o(.ARM.Collect$$libinit$$00000030)
    .ARM.Collect$$libinit$$00000031          0x00000256   Section        4  libinit2.o(.ARM.Collect$$libinit$$00000031)
    .ARM.Collect$$libinit$$00000032          0x0000025a   Section        0  libinit2.o(.ARM.Collect$$libinit$$00000032)
    .ARM.Collect$$libinit$$00000033          0x0000025a   Section        2  libinit2.o(.ARM.Collect$$libinit$$00000033)
    .ARM.Collect$$libshutdown$$00000002      0x0000025c   Section        0  libshutdown2.o(.ARM.Collect$$libshutdown$$00000002)
    .ARM.Collect$$libshutdown$$00000004      0x0000025c   Section        0  libshutdown2.o(.ARM.Collect$$libshutdown$$00000004)
    .ARM.Collect$$rtentry$$00000000          0x0000025c   Section        0  __rtentry.o(.ARM.Collect$$rtentry$$00000000)
    .ARM.Collect$$rtentry$$00000002          0x0000025c   Section        0  __rtentry2.o(.ARM.Collect$$rtentry$$00000002)
    .ARM.Collect$$rtentry$$00000004          0x0000025c   Section        6  __rtentry4.o(.ARM.Collect$$rtentry$$00000004)
    .ARM.Collect$$rtentry$$00000009          0x00000262   Section        0  __rtentry2.o(.ARM.Collect$$rtentry$$00000009)
    .ARM.Collect$$rtentry$$0000000A          0x00000262   Section        4  __rtentry2.o(.ARM.Collect$$rtentry$$0000000A)
    .ARM.Collect$$rtentry$$0000000C          0x00000266   Section        0  __rtentry2.o(.ARM.Collect$$rtentry$$0000000C)
    .ARM.Collect$$rtentry$$0000000D          0x00000266   Section        8  __rtentry2.o(.ARM.Collect$$rtentry$$0000000D)
    .emb_text                                0x00000270   Section        0  maybetermalloc1.o(.emb_text)
    .text                                    0x00000270   Section       36  startup_lpc407x_8x_177x_8x.o(.text)
    $v0                                      0x00000270   Number         0  startup_lpc407x_8x_177x_8x.o(.text)
    .text                                    0x00000294   Section        0  h1_alloc.o(.text)
    .text                                    0x000002f2   Section        0  vfprintf.o(.text)
    .ARM.__at_0x02FC                         0x000002fc   Section        4  startup_lpc407x_8x_177x_8x.o(.ARM.__at_0x02FC)
    .text                                    0x00000300   Section        0  h1_free.o(.text)
    .text                                    0x0000034e   Section        0  c89vfprintf.o(.text)
    .text                                    0x00000358   Section        0  __2sprintf.o(.text)
    .text                                    0x00000384   Section        0  _printf_hex_int_ll_ptr.o(.text)
    _printf_hex_common                       0x00000385   Thumb Code     0  _printf_hex_int_ll_ptr.o(.text)
    .text                                    0x00000418   Section        0  __printf_flags_ss_wp.o(.text)
    .text                                    0x000005a0   Section        0  __0sscanf.o(.text)
    .text                                    0x000005dc   Section        0  _scanf_int.o(.text)
    .text                                    0x00000728   Section        0  fflush.o(.text)
    .text                                    0x0000078c   Section        0  fopen.o(.text)
    _freopen_locked                          0x0000078d   Thumb Code     0  fopen.o(.text)
    .text                                    0x00000878   Section        0  setbuf.o(.text)
    .text                                    0x0000088c   Section        0  fclose.o(.text)
    .text                                    0x000008d8   Section        0  aeabi_atexit.o(.text)
    .text                                    0x00000906   Section        0  strlen.o(.text)
    .text                                    0x00000944   Section        0  strncmp.o(.text)
    .text                                    0x000009da   Section      138  rt_memcpy_v6.o(.text)
    .text                                    0x00000a64   Section      100  rt_memcpy_w.o(.text)
    .text                                    0x00000ac8   Section       68  rt_memclr.o(.text)
    .text                                    0x00000b0c   Section       78  rt_memclr_w.o(.text)
    .text                                    0x00000b5c   Section      128  strcmpv7m.o(.text)
    .text                                    0x00000bdc   Section        0  init_aeabi.o(.text)
    .text                                    0x00000c00   Section        8  rt_heap_descriptor.o(.text)
    .text                                    0x00000c08   Section        8  rt_new_handler_addr.o(.text)
    .text                                    0x00000c10   Section        8  rt_ddtor_pointer_addr.o(.text)
    .text                                    0x00000c18   Section        0  hguard.o(.text)
    .text                                    0x00000c1c   Section        0  init_alloc.o(.text)
    .text                                    0x00000ca6   Section        0  h1_init.o(.text)
    .text                                    0x00000cb4   Section        0  _rserrno.o(.text)
    .text                                    0x00000cca   Section        0  _printf_pad.o(.text)
    .text                                    0x00000d18   Section        0  _printf_truncate.o(.text)
    .text                                    0x00000d3c   Section        0  _printf_str.o(.text)
    .text                                    0x00000d8e   Section        0  _printf_intcommon.o(.text)
    .text                                    0x00000e40   Section        0  _printf_dec.o(.text)
    .text                                    0x00000eb8   Section        0  _printf_charcount.o(.text)
    .text                                    0x00000ee0   Section        0  _printf_char_common.o(.text)
    _printf_input_char                       0x00000ee1   Thumb Code    10  _printf_char_common.o(.text)
    .text                                    0x00000f10   Section        0  _sputc.o(.text)
    .text                                    0x00000f1c   Section        0  _printf_char_file.o(.text)
    .text                                    0x00000f40   Section        0  _printf_wctomb.o(.text)
    .text                                    0x00000ffc   Section        0  _printf_longlong_dec.o(.text)
    .text                                    0x00001078   Section        0  _printf_oct_int_ll.o(.text)
    _printf_longlong_oct_internal            0x00001079   Thumb Code     0  _printf_oct_int_ll.o(.text)
    .text                                    0x000010e8   Section        0  _chval.o(.text)
    .text                                    0x00001104   Section        0  scanf_char.o(.text)
    _scanf_char_input                        0x00001105   Thumb Code    12  scanf_char.o(.text)
    .text                                    0x00001130   Section        0  _sgetc.o(.text)
    .text                                    0x00001170   Section        0  ferror.o(.text)
    .text                                    0x00001178   Section        0  flsbuf.o(.text)
    .text                                    0x00001350   Section        0  fseek.o(.text)
    .text                                    0x00001448   Section        0  setvbuf.o(.text)
    .text                                    0x00001490   Section        0  stdio.o(.text)
    .text                                    0x00001580   Section        0  initio.o(.text)
    .text                                    0x000016b8   Section        0  cxa_finalize.o(.text)
    .text                                    0x000016fa   Section        0  defsig_pvfn_outer.o(.text)
    .text                                    0x00001708   Section        0  arm_newhandler_noexceptions.o(.text)
    .text                                    0x0000170c   Section        8  rt_errno_addr.o(.text)
    .text                                    0x00001714   Section        0  h1_extend.o(.text)
    .text                                    0x00001748   Section      138  lludiv10.o(.text)
    .text                                    0x000017d2   Section        0  isspace.o(.text)
    .text                                    0x000017e4   Section        0  _printf_fp_dec.o(.text)
    _fp_digits                               0x000017e7   Thumb Code   428  _printf_fp_dec.o(.text)
    .text                                    0x00001c00   Section        0  _printf_fp_hex.o(.text)
    .text                                    0x00001efc   Section        0  _printf_char.o(.text)
    .text                                    0x00001f28   Section        0  _printf_wchar.o(.text)
    .text                                    0x00001f54   Section        0  _scanf.o(.text)
    .text                                    0x000022c8   Section        0  ftell.o(.text)
    .text                                    0x0000230a   Section        0  _wcrtomb.o(.text)
    .text                                    0x0000234a   Section        0  defsig_exit.o(.text)
    .text                                    0x00002354   Section        0  defsig_rtred_outer.o(.text)
    .text                                    0x00002362   Section        0  defsig_rtmem_outer.o(.text)
    .text                                    0x00002370   Section        0  defsig_pvfn_inner.o(.text)
    .text                                    0x000023a0   Section        0  heapauxmm.o(.text)
    .text                                    0x000023a8   Section        0  arm_exceptions_terminate.o(.text)
    .text                                    0x000023c4   Section        0  arm_exceptions_globs.o(.text)
    [local to arm_exceptions_c]::__default_terminate_handler() 0x000023c5   Thumb Code     6  arm_exceptions_globs.o(.text)
    .text                                    0x00002414   Section        0  sys_exit.o(.text)
    .text                                    0x00002420   Section       16  rt_ctype_table.o(.text)
    .text                                    0x00002430   Section        8  rt_locale.o(.text)
    .text                                    0x00002438   Section        8  rt_eh_globals_addr.o(.text)
    .text                                    0x00002440   Section        0  _printf_fp_infnan.o(.text)
    .text                                    0x000024c0   Section        0  bigflt0.o(.text)
    .text                                    0x0000259c   Section        0  abort.o(.text)
    .text                                    0x000025b2   Section        0  defsig_general.o(.text)
    .text                                    0x000025e4   Section        0  defsig_rtred_inner.o(.text)
    .text                                    0x00002618   Section        0  defsig_rtmem_inner.o(.text)
    .text                                    0x00002668   Section        0  arm_exceptions_mem.o(.text)
    .text                                    0x000026a4   Section        0  sys_wrch.o(.text)
    .text                                    0x000026b2   Section        2  use_no_semi.o(.text)
    .text                                    0x000026b4   Section        0  defsig_abrt_outer.o(.text)
    .text                                    0x000026b4   Section        0  indicate_semi.o(.text)
    .text                                    0x000026c4   Section        0  defsig_abrt_inner.o(.text)
    CL$$btod_d2e                             0x000026f4   Section       62  btod.o(CL$$btod_d2e)
    CL$$btod_d2e_denorm_low                  0x00002732   Section       70  btod.o(CL$$btod_d2e_denorm_low)
    CL$$btod_d2e_norm_op1                    0x00002778   Section       96  btod.o(CL$$btod_d2e_norm_op1)
    CL$$btod_div_common                      0x000027d8   Section      824  btod.o(CL$$btod_div_common)
    CL$$btod_e2e                             0x00002b10   Section      198  btod.o(CL$$btod_e2e)
    CL$$btod_ediv                            0x00002bd6   Section       40  btod.o(CL$$btod_ediv)
    CL$$btod_emul                            0x00002bfe   Section       40  btod.o(CL$$btod_emul)
    CL$$btod_mult_common                     0x00002c26   Section      580  btod.o(CL$$btod_mult_common)
    i.$Sub$$main                             0x00002e6a   Section        0  retarget.o(i.$Sub$$main)
    i.NVIC_SetVector                         0x00002e7c   Section        0  cmsis_nvic.o(i.NVIC_SetVector)
    i.SystemCoreClockUpdate                  0x00002ebc   Section        0  system_lpc407x_8x_177x_8x.o(i.SystemCoreClockUpdate)
    i.SystemInit                             0x00003190   Section        0  system_lpc407x_8x_177x_8x.o(i.SystemInit)
    i._Z10sdram_initv                        0x0000327c   Section        0  sdram.o(i._Z10sdram_initv)
    i._Z10sdram_testv                        0x00003378   Section        0  sdram.o(i._Z10sdram_testv)
    sdram_test()                             0x00003379   Thumb Code    92  sdram.o(i._Z10sdram_testv)
    i._Z11calibrationv                       0x000033d4   Section        0  sdram.o(i._Z11calibrationv)
    calibration()                            0x000033d5   Thumb Code    62  sdram.o(i._Z11calibrationv)
    i._Z11find_cmddlyv                       0x0000341c   Section        0  sdram.o(i._Z11find_cmddlyv)
    find_cmddly()                            0x0000341d   Thumb Code   124  sdram.o(i._Z11find_cmddlyv)
    i._Z11init_serialv                       0x000034a0   Section        0  retarget.o(i._Z11init_serialv)
    init_serial()                            0x000034a1   Thumb Code    24  retarget.o(i._Z11init_serialv)
    i._Z11str_to_uintPcj                     0x000034c0   Section        0  ealcdboard.o(i._Z11str_to_uintPcj)
    str_to_uint(char*, unsigned)             0x000034c1   Thumb Code    40  ealcdboard.o(i._Z11str_to_uintPcj)
    i._Z13adjust_timingv                     0x000034e8   Section        0  sdram.o(i._Z13adjust_timingv)
    i._Z13find_fbclkdlyv                     0x00003540   Section        0  sdram.o(i._Z13find_fbclkdlyv)
    find_fbclkdly()                          0x00003541   Thumb Code   124  sdram.o(i._Z13find_fbclkdlyv)
    i._Z13jsPrsdAndRlsd7btnId_t              0x000035c4   Section        0  main.o(i._Z13jsPrsdAndRlsd7btnId_t)
    i._Z19swap_double_buffersv               0x00003644   Section        0  main.o(i._Z19swap_double_buffersv)
    i._Z21init_double_bufferingv             0x00003670   Section        0  main.o(i._Z21init_double_bufferingv)
    i._Z9pinConfigv                          0x00003690   Section        0  sdram.o(i._Z9pinConfigv)
    pinConfig()                              0x00003691   Thumb Code   842  sdram.o(i._Z9pinConfigv)
    i._Z9port_pin28PortNamei                 0x000039e4   Section        0  ealcdboard.o(i._Z9port_pin28PortNamei)
    port_pin2(PortName, int)                 0x000039e5   Thumb Code    10  ealcdboard.o(i._Z9port_pin28PortNamei)
    i._ZN10EaLcdBoard10eepromReadEPhtt       0x000039ee   Section        0  ealcdboard.o(i._ZN10EaLcdBoard10eepromReadEPhtt)
    i._ZN10EaLcdBoard10execPinSetEPcj        0x00003a6c   Section        0  ealcdboard.o(i._ZN10EaLcdBoard10execPinSetEPcj)
    i._ZN10EaLcdBoard10getInitSeqEPci        0x00003b48   Section        0  ealcdboard.o(i._ZN10EaLcdBoard10getInitSeqEPci)
    i._ZN10EaLcdBoard11execSeqCtrlEPcj       0x00003ba0   Section        0  ealcdboard.o(i._ZN10EaLcdBoard11execSeqCtrlEPcj)
    i._ZN10EaLcdBoard11set5VSignalEb         0x00003c24   Section        0  ealcdboard.o(i._ZN10EaLcdBoard11set5VSignalEb)
    i._ZN10EaLcdBoard11setLsStatesEtPhh      0x00003c44   Section        0  ealcdboard.o(i._ZN10EaLcdBoard11setLsStatesEtPhh)
    i._ZN10EaLcdBoard12checkVersionEPcj      0x00003c82   Section        0  ealcdboard.o(i._ZN10EaLcdBoard12checkVersionEPcj)
    i._ZN10EaLcdBoard12getLcdConfigEPN13LcdController6ConfigE 0x00003ca4   Section        0  ealcdboard.o(i._ZN10EaLcdBoard12getLcdConfigEPN13LcdController6ConfigE)
    i._ZN10EaLcdBoard12set3V3SignalEb        0x00003d80   Section        0  ealcdboard.o(i._ZN10EaLcdBoard12set3V3SignalEb)
    i._ZN10EaLcdBoard14setFrameBufferEj      0x00003da0   Section        0  ealcdboard.o(i._ZN10EaLcdBoard14setFrameBufferEj)
    i._ZN10EaLcdBoard15parseInitStringEPcPN13LcdController6ConfigE 0x00003de4   Section        0  ealcdboard.o(i._ZN10EaLcdBoard15parseInitStringEPcPN13LcdController6ConfigE)
    i._ZN10EaLcdBoard15pca9532_setLedsEtt    0x00003ea2   Section        0  ealcdboard.o(i._ZN10EaLcdBoard15pca9532_setLedsEtt)
    i._ZN10EaLcdBoard20setBacklightContrastEj 0x00003ece   Section        0  ealcdboard.o(i._ZN10EaLcdBoard20setBacklightContrastEj)
    i._ZN10EaLcdBoard21pca9532_setBlink0DutyEh 0x00003efc   Section        0  ealcdboard.o(i._ZN10EaLcdBoard21pca9532_setBlink0DutyEh)
    i._ZN10EaLcdBoard21pca9532_setBlink0LedsEt 0x00003f32   Section        0  ealcdboard.o(i._ZN10EaLcdBoard21pca9532_setBlink0LedsEt)
    i._ZN10EaLcdBoard22setDisplayEnableSignalEb 0x00003f4a   Section        0  ealcdboard.o(i._ZN10EaLcdBoard22setDisplayEnableSignalEb)
    i._ZN10EaLcdBoard23pca9532_setBlink0PeriodEh 0x00003f6a   Section        0  ealcdboard.o(i._ZN10EaLcdBoard23pca9532_setBlink0PeriodEh)
    i._ZN10EaLcdBoard4openEPN13LcdController6ConfigEPc 0x00003f8c   Section        0  ealcdboard.o(i._ZN10EaLcdBoard4openEPN13LcdController6ConfigEPc)
    i._ZN10EaLcdBoard7setLedsEv              0x00003fd8   Section        0  ealcdboard.o(i._ZN10EaLcdBoard7setLedsEv)
    i._ZN10EaLcdBoard8getStoreEPNS_7store_tE 0x00004044   Section        0  ealcdboard.o(i._ZN10EaLcdBoard8getStoreEPNS_7store_tE)
    i._ZN10EaLcdBoard9execDelayEPcj          0x0000406c   Section        0  ealcdboard.o(i._ZN10EaLcdBoard9execDelayEPcj)
    i._ZN10EaLcdBoardC1E7PinNameS0_          0x0000408c   Section        0  ealcdboard.o(i._ZN10EaLcdBoardC1E7PinNameS0_)
    i._ZN12Adafruit_GFX10fillCircleEssst     0x000040d0   Section        0  adafruit_gfx.o(i._ZN12Adafruit_GFX10fillCircleEssst)
    i._ZN12Adafruit_GFX12setTextColorEtt     0x00004110   Section        0  adafruit_gfx.o(i._ZN12Adafruit_GFX12setTextColorEtt)
    i._ZN12Adafruit_GFX13drawFastVLineEssst  0x00004116   Section        0  adafruit_gfx.o(i._ZN12Adafruit_GFX13drawFastVLineEssst)
    i._ZN12Adafruit_GFX16fillCircleHelperEssshst 0x00004144   Section        0  adafruit_gfx.o(i._ZN12Adafruit_GFX16fillCircleHelperEssshst)
    i._ZN12Adafruit_GFX5widthEv              0x0000423a   Section        0  adafruit_gfx.o(i._ZN12Adafruit_GFX5widthEv)
    i._ZN12Adafruit_GFX5writeEh              0x00004242   Section        0  adafruit_gfx.o(i._ZN12Adafruit_GFX5writeEh)
    i._ZN12Adafruit_GFX6heightEv             0x000042bc   Section        0  adafruit_gfx.o(i._ZN12Adafruit_GFX6heightEv)
    i._ZN12Adafruit_GFX8drawCharEsshtth      0x000042c4   Section        0  adafruit_gfx.o(i._ZN12Adafruit_GFX8drawCharEsshtth)
    i._ZN12Adafruit_GFX8drawLineEsssst       0x000043c8   Section        0  adafruit_gfx.o(i._ZN12Adafruit_GFX8drawLineEsssst)
    i._ZN12Adafruit_GFX8fillRectEsssst       0x000044a4   Section        0  adafruit_gfx.o(i._ZN12Adafruit_GFX8fillRectEsssst)
    i._ZN12Adafruit_GFX9setCursorEss         0x000044da   Section        0  adafruit_gfx.o(i._ZN12Adafruit_GFX9setCursorEss)
    i._ZN12Adafruit_GFXC2Ess                 0x000044e0   Section        0  adafruit_gfx.o(i._ZN12Adafruit_GFXC2Ess)
    i._ZN13ExpandedTimerC1Ev                 0x00004510   Section        0  game.o(i._ZN13ExpandedTimerC1Ev)
    i._ZN13LcdController14setFrameBufferEj   0x00004534   Section        0  lcdcontroller.o(i._ZN13LcdController14setFrameBufferEj)
    i._ZN13LcdController15getClockDivisorEi  0x0000454c   Section        0  lcdcontroller.o(i._ZN13LcdController15getClockDivisorEi)
    i._ZN13LcdController4initEPNS_6ConfigE   0x00004588   Section        0  lcdcontroller.o(i._ZN13LcdController4initEPNS_6ConfigE)
    i._ZN13LcdController4openEPNS_6ConfigE   0x00004748   Section        0  lcdcontroller.o(i._ZN13LcdController4openEPNS_6ConfigE)
    i._ZN13LcdController6ConfigC1EiiiiiiiibbbbiNS_12BitsPerPixelEiNS_8LcdPanelEb 0x00004790   Section        0  display.o(i._ZN13LcdController6ConfigC1EiiiiiiiibbbbiNS_12BitsPerPixelEiNS_8LcdPanelEb)
    i._ZN13LcdController8setPowerEb          0x000047f0   Section        0  lcdcontroller.o(i._ZN13LcdController8setPowerEb)
    i._ZN13LcdController9pinConfigEv         0x00004834   Section        0  lcdcontroller.o(i._ZN13LcdController9pinConfigEv)
    i._ZN13LcdControllerC1Ev                 0x00004990   Section        0  lcdcontroller.o(i._ZN13LcdControllerC1Ev)
    i._ZN14EaLcdBoardGPIO11set5VSignalEb     0x00004996   Section        0  ealcdboardgpio.o(i._ZN14EaLcdBoardGPIO11set5VSignalEb)
    i._ZN14EaLcdBoardGPIO12set3V3SignalEb    0x000049b6   Section        0  ealcdboardgpio.o(i._ZN14EaLcdBoardGPIO12set3V3SignalEb)
    i._ZN14EaLcdBoardGPIO15setWriteProtectEb 0x000049d6   Section        0  ealcdboardgpio.o(i._ZN14EaLcdBoardGPIO15setWriteProtectEb)
    i._ZN14EaLcdBoardGPIO20setBacklightContrastEj 0x000049d8   Section        0  ealcdboardgpio.o(i._ZN14EaLcdBoardGPIO20setBacklightContrastEj)
    i._ZN14EaLcdBoardGPIO22setDisplayEnableSignalEb 0x00004a34   Section        0  ealcdboardgpio.o(i._ZN14EaLcdBoardGPIO22setDisplayEnableSignalEb)
    i._ZN14EaLcdBoardGPIOC1E7PinNameS0_      0x00004a6c   Section        0  ealcdboardgpio.o(i._ZN14EaLcdBoardGPIOC1E7PinNameS0_)
    i._ZN3Cue11setPositionE6Vector           0x00004b08   Section        0  cue.o(i._ZN3Cue11setPositionE6Vector)
    i._ZN3Cue11setStrengthEf                 0x00004b18   Section        0  cue.o(i._ZN3Cue11setStrengthEf)
    i._ZN3Cue4drawEP7DisplayP4Shot6Vector    0x00004b20   Section        0  cue.o(i._ZN3Cue4drawEP7DisplayP4Shot6Vector)
    i._ZN3Cue8setAngleEf                     0x00004cd0   Section        0  cue.o(i._ZN3Cue8setAngleEf)
    i._ZN3CueC1Ev                            0x00004cd8   Section        0  cue.o(i._ZN3CueC1Ev)
    i._ZN3CueD1Ev                            0x00004d04   Section        0  cue.o(i._ZN3CueD1Ev)
    i._ZN4Ball10resetSpeedEv                 0x00004d08   Section        0  ball.o(i._ZN4Ball10resetSpeedEv)
    i._ZN4Ball11addPositionEP6Vector         0x00004d24   Section        0  ball.o(i._ZN4Ball11addPositionEP6Vector)
    i._ZN4Ball11getPositionEv                0x00004d36   Section        0  ball.o(i._ZN4Ball11getPositionEv)
    i._ZN4Ball11rotateSpeedEf                0x00004d40   Section        0  ball.o(i._ZN4Ball11rotateSpeedEf)
    i._ZN4Ball11setPositionEP6Vector         0x00004d5e   Section        0  ball.o(i._ZN4Ball11setPositionEP6Vector)
    i._ZN4Ball11tradeXSpeedEPS_              0x00004d70   Section        0  ball.o(i._ZN4Ball11tradeXSpeedEPS_)
    i._ZN4Ball12addXPositionEf               0x00004dd0   Section        0  ball.o(i._ZN4Ball12addXPositionEf)
    i._ZN4Ball12addYPositionEf               0x00004e04   Section        0  ball.o(i._ZN4Ball12addYPositionEf)
    i._ZN4Ball12getXPositionEv               0x00004e38   Section        0  ball.o(i._ZN4Ball12getXPositionEv)
    i._ZN4Ball12getZPositionEv               0x00004e46   Section        0  ball.o(i._ZN4Ball12getZPositionEv)
    i._ZN4Ball12setXPositionEf               0x00004e54   Section        0  ball.o(i._ZN4Ball12setXPositionEf)
    i._ZN4Ball12setYPositionEf               0x00004e72   Section        0  ball.o(i._ZN4Ball12setYPositionEf)
    i._ZN4Ball12subXPositionEf               0x00004e90   Section        0  ball.o(i._ZN4Ball12subXPositionEf)
    i._ZN4Ball12subYPositionEf               0x00004ec4   Section        0  ball.o(i._ZN4Ball12subYPositionEf)
    i._ZN4Ball13blackPositionEv              0x00004ef8   Section        0  ball.o(i._ZN4Ball13blackPositionEv)
    i._ZN4Ball13reverseXSpeedEv              0x00004f1c   Section        0  ball.o(i._ZN4Ball13reverseXSpeedEv)
    i._ZN4Ball13reverseZSpeedEv              0x00004f3a   Section        0  ball.o(i._ZN4Ball13reverseZSpeedEv)
    i._ZN4Ball13whitePositionEv              0x00004f58   Section        0  ball.o(i._ZN4Ball13whitePositionEv)
    i._ZN4Ball19calculateSpeedAngleEv        0x00004f7c   Section        0  ball.o(i._ZN4Ball19calculateSpeedAngleEv)
    i._ZN4Ball4drawEP7Displayt               0x00004f9a   Section        0  ball.o(i._ZN4Ball4drawEP7Displayt)
    i._ZN4Ball4killEv                        0x00004fda   Section        0  ball.o(i._ZN4Ball4killEv)
    i._ZN4Ball6inGameEv                      0x00004fe0   Section        0  ball.o(i._ZN4Ball6inGameEv)
    i._ZN4Ball8getSpeedEv                    0x00004fe6   Section        0  ball.o(i._ZN4Ball8getSpeedEv)
    i._ZN4Ball8isMovingEv                    0x00004ff0   Section        0  ball.o(i._ZN4Ball8isMovingEv)
    i._ZN4Ball8setSpeedEP6Vector             0x00005054   Section        0  ball.o(i._ZN4Ball8setSpeedEP6Vector)
    i._ZN4Ball9getNumberEv                   0x00005066   Section        0  ball.o(i._ZN4Ball9getNumberEv)
    i._ZN4Ball9getXSpeedEv                   0x0000506c   Section        0  ball.o(i._ZN4Ball9getXSpeedEv)
    i._ZN4Ball9getYSpeedEv                   0x0000507a   Section        0  ball.o(i._ZN4Ball9getYSpeedEv)
    i._ZN4Ball9putInGameEv                   0x00005088   Section        0  ball.o(i._ZN4Ball9putInGameEv)
    i._ZN4BallC1Ev                           0x0000508e   Section        0  game.o(i._ZN4BallC1Ev)
    i._ZN4Game10processEndEv                 0x000050ac   Section        0  game.o(i._ZN4Game10processEndEv)
    i._ZN4Game10processKeyE7btnId_t          0x000051a8   Section        0  game.o(i._ZN4Game10processKeyE7btnId_t)
    i._ZN4Game10updateShotEv                 0x000051c4   Section        0  game.o(i._ZN4Game10updateShotEv)
    i._ZN4Game11executeShotEv                0x000051f2   Section        0  game.o(i._ZN4Game11executeShotEv)
    i._ZN4Game11illegalMoveEi                0x0000520e   Section        0  game.o(i._ZN4Game11illegalMoveEi)
    i._ZN4Game11setStrengthEf                0x0000524e   Section        0  game.o(i._ZN4Game11setStrengthEf)
    i._ZN4Game12applyPhysicsEv               0x0000526c   Section        0  game.o(i._ZN4Game12applyPhysicsEv)
    i._ZN4Game12checkCueBallEv               0x00005324   Section        0  game.o(i._ZN4Game12checkCueBallEv)
    i._ZN4Game12setDirectionE7btnId_t        0x00005340   Section        0  game.o(i._ZN4Game12setDirectionE7btnId_t)
    i._ZN4Game13drawSelectionEv              0x000053d8   Section        0  game.o(i._ZN4Game13drawSelectionEv)
    i._ZN4Game14initializeGameEv             0x000053ec   Section        0  game.o(i._ZN4Game14initializeGameEv)
    i._ZN4Game14killPlayerBallEi             0x0000545e   Section        0  game.o(i._ZN4Game14killPlayerBallEi)
    i._ZN4Game14processEndGameEi             0x000054c2   Section        0  game.o(i._ZN4Game14processEndGameEi)
    i._ZN4Game14respawnCueBallEv             0x000054dc   Section        0  game.o(i._ZN4Game14respawnCueBallEv)
    i._ZN4Game15updateBallCountEv            0x00005540   Section        0  game.o(i._ZN4Game15updateBallCountEv)
    i._ZN4Game16physicsInterfaceEv           0x0000557c   Section        0  game.o(i._ZN4Game16physicsInterfaceEv)
    i._ZN4Game4drawEv                        0x0000562e   Section        0  game.o(i._ZN4Game4drawEv)
    i._ZN4Game4loopEv                        0x00005666   Section        0  game.o(i._ZN4Game4loopEv)
    i._ZN4Game5op_idEi                       0x00005692   Section        0  game.o(i._ZN4Game5op_idEi)
    i._ZN4Game6isOverEv                      0x000056a0   Section        0  game.o(i._ZN4Game6isOverEv)
    i._ZN4Game8drawShotEv                    0x000056d2   Section        0  game.o(i._ZN4Game8drawShotEv)
    i._ZN4Game9turnEndedEv                   0x000056e6   Section        0  game.o(i._ZN4Game9turnEndedEv)
    i._ZN4GameC1EP7Display                   0x00005740   Section        0  game.o(i._ZN4GameC1EP7Display)
    i._ZN4GameD1Ev                           0x00005830   Section        0  main.o(i._ZN4GameD1Ev)
    i._ZN4Shot6getStrEv                      0x0000584e   Section        0  shot.o(i._ZN4Shot6getStrEv)
    i._ZN4Shot6setStrEf                      0x00005854   Section        0  shot.o(i._ZN4Shot6setStrEf)
    i._ZN4Shot8addAngleEf                    0x0000585c   Section        0  shot.o(i._ZN4Shot8addAngleEf)
    i._ZN4Shot8getAngleEv                    0x000058ac   Section        0  shot.o(i._ZN4Shot8getAngleEv)
    i._ZN4Shot8setAngleEf                    0x000058b2   Section        0  shot.o(i._ZN4Shot8setAngleEf)
    i._ZN4ShotC1Ev                           0x000058b8   Section        0  shot.o(i._ZN4ShotC1Ev)
    i._ZN4mbed10DigitalOutC1E7PinName        0x000058d4   Section        0  ealcdboardgpio.o(i._ZN4mbed10DigitalOutC1E7PinName)
    i._ZN4mbed10DigitalOutaSEi               0x000058f0   Section        0  ealcdboardgpio.o(i._ZN4mbed10DigitalOutaSEi)
    i._ZN4mbed10FileHandle4flenEv            0x0000594c   Section        0  filelike.o(i._ZN4mbed10FileHandle4flenEv)
    i._ZN4mbed26mbed_set_unbuffered_streamEPSt6__FILE 0x00005986   Section        0  retarget.o(i._ZN4mbed26mbed_set_unbuffered_streamEPSt6__FILE)
    i._ZN4mbed3I2C4readEiPcib                0x00005994   Section        0  i2c.o(i._ZN4mbed3I2C4readEiPcib)
    i._ZN4mbed3I2C5writeEiPKcib              0x000059ce   Section        0  i2c.o(i._ZN4mbed3I2C5writeEiPKcib)
    i._ZN4mbed3I2C6aquireEv                  0x00005a08   Section        0  i2c.o(i._ZN4mbed3I2C6aquireEv)
    i._ZN4mbed3I2C9frequencyEi               0x00005a28   Section        0  i2c.o(i._ZN4mbed3I2C9frequencyEi)
    i._ZN4mbed3I2CC1E7PinNameS1_             0x00005a44   Section        0  i2c.o(i._ZN4mbed3I2CC1E7PinNameS1_)
    i._ZN4mbed6Stream4flenEv                 0x00005a70   Section        0  stream.o(i._ZN4mbed6Stream4flenEv)
    i._ZN4mbed6Stream5closeEv                0x00005a76   Section        0  stream.o(i._ZN4mbed6Stream5closeEv)
    i._ZN4mbed6Stream5lseekEli               0x00005a7c   Section        0  stream.o(i._ZN4mbed6Stream5lseekEli)
    i._ZN4mbed6Stream5writeEPKvj             0x00005a82   Section        0  stream.o(i._ZN4mbed6Stream5writeEPKvj)
    i._ZN4mbed6Stream6isattyEv               0x00005ab2   Section        0  stream.o(i._ZN4mbed6Stream6isattyEv)
    i._ZN4mbed6Stream6printfEPKcz            0x00005ab8   Section        0  stream.o(i._ZN4mbed6Stream6printfEPKcz)
    i._ZN4mbed6StreamC2EPKc                  0x00005ae0   Section        0  stream.o(i._ZN4mbed6StreamC2EPKc)
    i._ZN4mbed8Ethernet4linkEv               0x00005b28   Section        0  ethernet.o(i._ZN4mbed8Ethernet4linkEv)
    i._ZN4mbed8Ethernet4readEPci             0x00005b32   Section        0  ethernet.o(i._ZN4mbed8Ethernet4readEPci)
    i._ZN4mbed8Ethernet4sendEv               0x00005b44   Section        0  ethernet.o(i._ZN4mbed8Ethernet4sendEv)
    i._ZN4mbed8Ethernet5writeEPKci           0x00005b4e   Section        0  ethernet.o(i._ZN4mbed8Ethernet5writeEPKci)
    i._ZN4mbed8Ethernet7receiveEv            0x00005b60   Section        0  ethernet.o(i._ZN4mbed8Ethernet7receiveEv)
    i._ZN4mbed8EthernetC1Ev                  0x00005b6c   Section        0  ethernet.o(i._ZN4mbed8EthernetC1Ev)
    i._ZN4mbed8EthernetD1Ev                  0x00005b80   Section        0  ethernet.o(i._ZN4mbed8EthernetD1Ev)
    i._ZN4mbed8FileBase11getPathTypeEv       0x00005b94   Section        0  filebase.o(i._ZN4mbed8FileBase11getPathTypeEv)
    i._ZN4mbed8FileBase6lookupEPKcj          0x00005b9c   Section        0  filebase.o(i._ZN4mbed8FileBase6lookupEPKcj)
    i._ZN4mbed8FileBaseC1EPKcNS_8PathTypeE   0x00005bd4   Section        0  filebase.o(i._ZN4mbed8FileBaseC1EPKcNS_8PathTypeE)
    i._ZN4mbed8FileLikeC2EPKc                0x00005bfc   Section        0  filelike.o(i._ZN4mbed8FileLikeC2EPKc)
    i._ZN4mbed8FilePath10fileSystemEv        0x00005c28   Section        0  filepath.o(i._ZN4mbed8FilePath10fileSystemEv)
    i._ZN4mbed8FilePath12isFileSystemEv      0x00005c3c   Section        0  filepath.o(i._ZN4mbed8FilePath12isFileSystemEv)
    i._ZN4mbed8FilePath4fileEv               0x00005c58   Section        0  filepath.o(i._ZN4mbed8FilePath4fileEv)
    i._ZN4mbed8FilePath6existsEv             0x00005c76   Section        0  filepath.o(i._ZN4mbed8FilePath6existsEv)
    i._ZN4mbed8FilePath6isFileEv             0x00005c84   Section        0  filepath.o(i._ZN4mbed8FilePath6isFileEv)
    i._ZN4mbed8FilePath8fileNameEv           0x00005ca0   Section        0  filepath.o(i._ZN4mbed8FilePath8fileNameEv)
    i._ZN4mbed8FilePathC1EPKc                0x00005ca6   Section        0  filepath.o(i._ZN4mbed8FilePathC1EPKc)
    i._ZN4mbed9DigitalInC1E7PinName          0x00005cfc   Section        0  main.o(i._ZN4mbed9DigitalInC1E7PinName)
    i._ZN5GFXFb10fillScreenEt                0x00005d16   Section        0  gfxfb.o(i._ZN5GFXFb10fillScreenEt)
    i._ZN5GFXFb13drawFastVLineEssst          0x00005d3c   Section        0  gfxfb.o(i._ZN5GFXFb13drawFastVLineEssst)
    i._ZN5GFXFb9drawPixelEsst                0x00005da4   Section        0  gfxfb.o(i._ZN5GFXFb9drawPixelEsst)
    i._ZN5GFXFbC1EttPt                       0x00005dec   Section        0  gfxfb.o(i._ZN5GFXFbC1EttPt)
    i._ZN5LM75B4openEv                       0x00005e14   Section        0  lm75b.o(i._ZN5LM75B4openEv)
    i._ZN5LM75BC1E7PinNameS0_NS_7AddressEi   0x00005e32   Section        0  lm75b.o(i._ZN5LM75BC1E7PinNameS0_NS_7AddressEi)
    i._ZN5Table11nearestHoleE6Vector         0x00005e60   Section        0  table.o(i._ZN5Table11nearestHoleE6Vector)
    i._ZN5Table13getHoleCenterEi             0x00005f2c   Section        0  table.o(i._ZN5Table13getHoleCenterEi)
    i._ZN5Table4drawEP7Display               0x00005f3a   Section        0  table.o(i._ZN5Table4drawEP7Display)
    i._ZN5Table8holeAreaE6Vector             0x000060a4   Section        0  table.o(i._ZN5Table8holeAreaE6Vector)
    i._ZN5TableC1Ev                          0x00006154   Section        0  table.o(i._ZN5TableC1Ev)
    i._ZN6PlayerC1Eii                        0x000061d8   Section        0  game.o(i._ZN6PlayerC1Eii)
    i._ZN6PlayerC1Ev                         0x000061e4   Section        0  game.o(i._ZN6PlayerC1Ev)
    i._ZN6Vector11sqrDistanceEPS_            0x000061f4   Section        0  vector.o(i._ZN6Vector11sqrDistanceEPS_)
    i._ZN6Vector13terminalPointEPS_          0x00006222   Section        0  vector.o(i._ZN6Vector13terminalPointEPS_)
    i._ZN6Vector14calculateAngleEPS_         0x00006266   Section        0  vector.o(i._ZN6Vector14calculateAngleEPS_)
    i._ZN6Vector14vectorRotationEf           0x000062c0   Section        0  vector.o(i._ZN6Vector14vectorRotationEf)
    i._ZN6Vector4getXEv                      0x0000631e   Section        0  vector.o(i._ZN6Vector4getXEv)
    i._ZN6Vector4getZEv                      0x00006324   Section        0  vector.o(i._ZN6Vector4getZEv)
    i._ZN6Vector4setXEf                      0x0000632a   Section        0  vector.o(i._ZN6Vector4setXEf)
    i._ZN6Vector4setZEf                      0x00006330   Section        0  vector.o(i._ZN6Vector4setZEf)
    i._ZN6Vector9addVectorEPS_               0x00006336   Section        0  vector.o(i._ZN6Vector9addVectorEPS_)
    i._ZN6Vector9mulVectorEPS_               0x00006358   Section        0  vector.o(i._ZN6Vector9mulVectorEPS_)
    i._ZN6Vector9setVectorEPS_               0x0000637a   Section        0  vector.o(i._ZN6Vector9setVectorEPS_)
    i._ZN6Vector9setVectorEff                0x00006394   Section        0  vector.o(i._ZN6Vector9setVectorEff)
    i._ZN6Vector9subVectorEPS_               0x0000639e   Section        0  vector.o(i._ZN6Vector9subVectorEPS_)
    i._ZN6VectorC1Eff                        0x000063c0   Section        0  vector.o(i._ZN6VectorC1Eff)
    i._ZN6VectorC1Ev                         0x000063cc   Section        0  vector.o(i._ZN6VectorC1Ev)
    i._ZN7Display10theDisplayEv              0x000063e4   Section        0  display.o(i._ZN7Display10theDisplayEv)
    i._ZN7Display5_putcEi                    0x00006420   Section        0  display.o(i._ZN7Display5_putcEi)
    i._ZN7DisplayC1Ev                        0x00006434   Section        0  display.o(i._ZN7DisplayC1Ev)
    i._ZN7MMA7455C1E7PinNameS0_              0x00006584   Section        0  mma7455.o(i._ZN7MMA7455C1E7PinNameS0_)
    i._ZN7Physics10energyLossEP4Ball         0x000065a8   Section        0  physics.o(i._ZN7Physics10energyLossEP4Ball)
    i._ZN7Physics10hitCueBallEP4BallP4Shot   0x000065e8   Section        0  physics.o(i._ZN7Physics10hitCueBallEP4BallP4Shot)
    i._ZN7Physics11insertIndexEPiiii         0x0000670c   Section        0  physics.o(i._ZN7Physics11insertIndexEPiiii)
    i._ZN7Physics12getCollisionEv            0x0000672c   Section        0  physics.o(i._ZN7Physics12getCollisionEv)
    i._ZN7Physics13ballCollisionEP4BallS1_   0x0000673a   Section        0  physics.o(i._ZN7Physics13ballCollisionEP4BallS1_)
    i._ZN7Physics13hasCollisionsEv           0x000067be   Section        0  physics.o(i._ZN7Physics13hasCollisionsEv)
    i._ZN7Physics14insertDistanceEPfif       0x000067cc   Section        0  physics.o(i._ZN7Physics14insertDistanceEPfif)
    i._ZN7Physics14tableCollisionEP5TableP4Ball 0x00006816   Section        0  physics.o(i._ZN7Physics14tableCollisionEP5TableP4Ball)
    i._ZN7Physics16fixBallCollisionEP4BallS1_ 0x00006876   Section        0  physics.o(i._ZN7Physics16fixBallCollisionEP4BallS1_)
    i._ZN7Physics16respawnCollisionEP5TableP9BallArrayb 0x000068de   Section        0  physics.o(i._ZN7Physics16respawnCollisionEP5TableP9BallArrayb)
    i._ZN7Physics17fixTableCollisionEP4Ball  0x000069dc   Section        0  physics.o(i._ZN7Physics17fixTableCollisionEP4Ball)
    i._ZN7Physics17getCollisionOrderEP9BallArrayi 0x00006a34   Section        0  physics.o(i._ZN7Physics17getCollisionOrderEP9BallArrayi)
    i._ZN7Physics17holeAreaCollisionEP5TableP4Ball 0x00006acc   Section        0  physics.o(i._ZN7Physics17holeAreaCollisionEP5TableP4Ball)
    i._ZN7Physics18checkBallCollisionEP4BallS1_Pf 0x00006b48   Section        0  physics.o(i._ZN7Physics18checkBallCollisionEP4BallS1_Pf)
    i._ZN7Physics18checkHoleCollisionEP5TableP4Balli 0x00006bb8   Section        0  physics.o(i._ZN7Physics18checkHoleCollisionEP5TableP4Balli)
    i._ZN7Physics19checkTableCollisionEP5TableP4Ball 0x00006c24   Section        0  physics.o(i._ZN7Physics19checkTableCollisionEP5TableP4Ball)
    i._ZN7Physics8FrictionEP4Ball            0x00006d14   Section        0  physics.o(i._ZN7Physics8FrictionEP4Ball)
    i._ZN7Physics8movementEP4Ball            0x00006dd0   Section        0  physics.o(i._ZN7Physics8movementEP4Ball)
    i._ZN7PhysicsC1Ev                        0x00006dfc   Section        0  physics.o(i._ZN7PhysicsC1Ev)
    i._ZN7PhysicsD1Ev                        0x00006e10   Section        0  physics.o(i._ZN7PhysicsD1Ev)
    i._ZN9BallArray16getWhitePositionEv      0x00006e1e   Section        0  ball.o(i._ZN9BallArray16getWhitePositionEv)
    i._ZN9BallArray19initializeBallArrayEi   0x00006e48   Section        0  ball.o(i._ZN9BallArray19initializeBallArrayEi)
    i._ZN9BallArray7getBallEi                0x000070d4   Section        0  ball.o(i._ZN9BallArray7getBallEi)
    i._ZN9BallArray7getSizeEv                0x000070e0   Section        0  ball.o(i._ZN9BallArray7getSizeEv)
    i._ZN9BallArrayC1Ev                      0x000070e8   Section        0  game.o(i._ZN9BallArrayC1Ev)
    i._ZN9Interface10playerTurnEi            0x00007100   Section        0  interface.o(i._ZN9Interface10playerTurnEi)
    i._ZN9Interface10setCueBallEP4Ball       0x0000714c   Section        0  interface.o(i._ZN9Interface10setCueBallEP4Ball)
    i._ZN9Interface12setBlackBallEP4Ball     0x00007150   Section        0  interface.o(i._ZN9Interface12setBlackBallEP4Ball)
    i._ZN9Interface13setBallsArrayEP9BallArray 0x00007154   Section        0  interface.o(i._ZN9Interface13setBallsArrayEP9BallArray)
    i._ZN9Interface15drawIllegalMoveEi       0x00007158   Section        0  interface.o(i._ZN9Interface15drawIllegalMoveEi)
    i._ZN9Interface16drawShotStrengthEf      0x00007238   Section        0  interface.o(i._ZN9Interface16drawShotStrengthEf)
    i._ZN9Interface4initEv                   0x00007284   Section        0  interface.o(i._ZN9Interface4initEv)
    i._ZN9Interface7drawCueEP4Shotb          0x000072aa   Section        0  interface.o(i._ZN9Interface7drawCueEP4Shotb)
    i._ZN9Interface8setTableEP5Table         0x0000731c   Section        0  interface.o(i._ZN9Interface8setTableEP5Table)
    i._ZN9Interface9drawBallsEv              0x00007320   Section        0  interface.o(i._ZN9Interface9drawBallsEv)
    i._ZN9Interface9drawTableEv              0x00007390   Section        0  interface.o(i._ZN9Interface9drawTableEv)
    i._ZN9Interface9playerWonEi              0x000073a0   Section        0  interface.o(i._ZN9Interface9playerWonEi)
    i._ZN9InterfaceC1EP7Display              0x00007430   Section        0  interface.o(i._ZN9InterfaceC1EP7Display)
    i._ZN9InterfaceC1Ev                      0x00007444   Section        0  interface.o(i._ZN9InterfaceC1Ev)
    i._ZN9InterfaceD1Ev                      0x00007454   Section        0  interface.o(i._ZN9InterfaceD1Ev)
    i._ZSt3cosf                              0x00007464   Section        0  vector.o(i._ZSt3cosf)
    i._ZSt3sinf                              0x0000747c   Section        0  vector.o(i._ZSt3sinf)
    i._Znwj                                  0x00007494   Section        0  new.o(i._Znwj)
    i.__ARM_fpclassify                       0x000074bc   Section        0  fpclassify.o(i.__ARM_fpclassify)
    i.__ARM_fpclassifyf                      0x000074ec   Section        0  fpclassifyf.o(i.__ARM_fpclassifyf)
    i.__aeabi_vec_ctor_nocookie_nodtor       0x00007512   Section        0  aeabi_vec_ctor_nocookie_nodtor.o(i.__aeabi_vec_ctor_nocookie_nodtor)
    i.__cxa_guard_acquire                    0x00007536   Section        0  cxa_guard_acquire.o(i.__cxa_guard_acquire)
    i.__cxa_pure_virtual                     0x00007546   Section        0  pure_virt.o(i.__cxa_pure_virtual)
    i.__hardfp_atan2f                        0x0000754c   Section        0  atan2f.o(i.__hardfp_atan2f)
    i.__hardfp_cos                           0x000077a0   Section        0  cos.o(i.__hardfp_cos)
    i.__hardfp_cosf                          0x00007868   Section        0  cosf.o(i.__hardfp_cosf)
    i.__hardfp_sin                           0x000079b8   Section        0  sin.o(i.__hardfp_sin)
    i.__hardfp_sinf                          0x00007a80   Section        0  sinf.o(i.__hardfp_sinf)
    i.__ieee754_rem_pio2                     0x00007c10   Section        0  rred.o(i.__ieee754_rem_pio2)
    i.__kernel_cos                           0x00008048   Section        0  cos_i.o(i.__kernel_cos)
    i.__kernel_poly                          0x000081b8   Section        0  poly.o(i.__kernel_poly)
    i.__kernel_sin                           0x000082b0   Section        0  sin_i.o(i.__kernel_sin)
    i.__mathlib_dbl_infnan                   0x000083e0   Section        0  dunder.o(i.__mathlib_dbl_infnan)
    i.__mathlib_dbl_invalid                  0x000083f8   Section        0  dunder.o(i.__mathlib_dbl_invalid)
    i.__mathlib_dbl_underflow                0x00008418   Section        0  dunder.o(i.__mathlib_dbl_underflow)
    i.__mathlib_flt_infnan                   0x00008438   Section        0  funder.o(i.__mathlib_flt_infnan)
    i.__mathlib_flt_infnan2                  0x0000843e   Section        0  funder.o(i.__mathlib_flt_infnan2)
    i.__mathlib_flt_invalid                  0x00008444   Section        0  funder.o(i.__mathlib_flt_invalid)
    i.__mathlib_flt_underflow                0x00008454   Section        0  funder.o(i.__mathlib_flt_underflow)
    i.__mathlib_rredf2                       0x00008464   Section        0  rredf.o(i.__mathlib_rredf2)
    i.__reserved_stack_size                  0x000085b8   Section        0  sdram.o(i.__reserved_stack_size)
    i.__rt_heap_extend                       0x000085c0   Section        0  sdram.o(i.__rt_heap_extend)
    i.__sti___8_main_cpp_Eth                 0x00008604   Section        0  main.o(i.__sti___8_main_cpp_Eth)
    __sti___8_main_cpp_Eth                   0x00008605   Thumb Code   158  main.o(i.__sti___8_main_cpp_Eth)
    i.__user_setup_stackheap                 0x000086d4   Section        0  sys.o(i.__user_setup_stackheap)
    i._gpio_init_in                          0x00008704   Section        0  gpio.o(i._gpio_init_in)
    _gpio_init_in                            0x00008705   Thumb Code    38  gpio.o(i._gpio_init_in)
    i._gpio_init_out                         0x0000872a   Section        0  gpio.o(i._gpio_init_out)
    _gpio_init_out                           0x0000872b   Thumb Code    52  gpio.o(i._gpio_init_out)
    i._is_digit                              0x0000875e   Section        0  __printf_wp.o(i._is_digit)
    i._sys_close                             0x0000876c   Section        0  retarget.o(i._sys_close)
    i._sys_flen                              0x0000879c   Section        0  retarget.o(i._sys_flen)
    i._sys_istty                             0x000087c8   Section        0  retarget.o(i._sys_istty)
    i._sys_open                              0x000087f4   Section        0  retarget.o(i._sys_open)
    i._sys_seek                              0x00008924   Section        0  retarget.o(i._sys_seek)
    i._sys_write                             0x00008954   Section        0  retarget.o(i._sys_write)
    i.adc_read                               0x000089b8   Section        0  analogin_api.o(i.adc_read)
    adc_read                                 0x000089b9   Thumb Code    74  analogin_api.o(i.adc_read)
    i.adc_read_u32                           0x00008a08   Section        0  analogin_api.o(i.adc_read_u32)
    adc_read_u32                             0x00008a09   Thumb Code    58  analogin_api.o(i.adc_read_u32)
    i.analogin_init                          0x00008a44   Section        0  analogin_api.o(i.analogin_init)
    i.analogin_read                          0x00008af0   Section        0  analogin_api.o(i.analogin_read)
    i.clock                                  0x00008b18   Section        0  rtc_time.o(i.clock)
    i.clockselect                            0x00008b2c   Section        0  ethernet_api.o(i.clockselect)
    clockselect                              0x00008b2d   Thumb Code   214  ethernet_api.o(i.clockselect)
    i.error                                  0x00008c44   Section        0  error.o(i.error)
    i.ethernet_address                       0x00008c64   Section        0  ethernet_api.o(i.ethernet_address)
    i.ethernet_free                          0x00008c70   Section        0  ethernet_api.o(i.ethernet_free)
    i.ethernet_init                          0x00008d30   Section        0  ethernet_api.o(i.ethernet_init)
    i.ethernet_link                          0x00009038   Section        0  ethernet_api.o(i.ethernet_link)
    i.ethernet_read                          0x00009064   Section        0  ethernet_api.o(i.ethernet_read)
    i.ethernet_receive                       0x0000915c   Section        0  ethernet_api.o(i.ethernet_receive)
    i.ethernet_send                          0x00009228   Section        0  ethernet_api.o(i.ethernet_send)
    i.ethernet_set_link                      0x00009284   Section        0  ethernet_api.o(i.ethernet_set_link)
    i.ethernet_write                         0x000093ac   Section        0  ethernet_api.o(i.ethernet_write)
    i.exit                                   0x00009494   Section        0  retarget.o(i.exit)
    i.fabs                                   0x000094b4   Section        0  fabs.o(i.fabs)
    i.fpu_init                               0x000094cc   Section        0  system_lpc407x_8x_177x_8x.o(i.fpu_init)
    i.fputc                                  0x0000951c   Section        0  fputc.o(i.fputc)
    i.gpio_dir                               0x00009538   Section        0  gpio_api.o(i.gpio_dir)
    i.gpio_init                              0x000095c8   Section        0  gpio_api.o(i.gpio_init)
    i.gpio_init_in                           0x00009600   Section        0  gpio.o(i.gpio_init_in)
    i.gpio_init_in_ex                        0x00009612   Section        0  gpio.o(i.gpio_init_in_ex)
    i.gpio_init_out                          0x00009626   Section        0  gpio.o(i.gpio_init_out)
    i.gpio_init_out_ex                       0x00009638   Section        0  gpio.o(i.gpio_init_out_ex)
    i.gpio_mode                              0x0000964e   Section        0  gpio_api.o(i.gpio_mode)
    i.gpio_set                               0x00009660   Section        0  gpio_api.o(i.gpio_set)
    i.gpio_write                             0x000096d0   Section        0  gpio.o(i.gpio_write)
    gpio_write                               0x000096d1   Thumb Code    46  gpio.o(i.gpio_write)
    i.gpio_write                             0x00009750   Section        0  board.o(i.gpio_write)
    gpio_write                               0x00009751   Thumb Code    46  board.o(i.gpio_write)
    i.i2c_clear_SI                           0x000097d0   Section        0  i2c_api.o(i.i2c_clear_SI)
    i2c_clear_SI                             0x000097d1   Thumb Code    22  i2c_api.o(i.i2c_clear_SI)
    i.i2c_conclr                             0x000097e6   Section        0  i2c_api.o(i.i2c_conclr)
    i2c_conclr                               0x000097e7   Thumb Code    24  i2c_api.o(i.i2c_conclr)
    i.i2c_conset                             0x000097fe   Section        0  i2c_api.o(i.i2c_conset)
    i2c_conset                               0x000097ff   Thumb Code    24  i2c_api.o(i.i2c_conset)
    i.i2c_do_read                            0x00009816   Section        0  i2c_api.o(i.i2c_do_read)
    i2c_do_read                              0x00009817   Thumb Code    62  i2c_api.o(i.i2c_do_read)
    i.i2c_do_write                           0x00009854   Section        0  i2c_api.o(i.i2c_do_write)
    i2c_do_write                             0x00009855   Thumb Code    32  i2c_api.o(i.i2c_do_write)
    i.i2c_frequency                          0x00009874   Section        0  i2c_api.o(i.i2c_frequency)
    i.i2c_init                               0x00009890   Section        0  i2c_api.o(i.i2c_init)
    i.i2c_read                               0x000099d4   Section        0  i2c_api.o(i.i2c_read)
    i.i2c_start                              0x00009a84   Section        0  i2c_api.o(i.i2c_start)
    i.i2c_status                             0x00009acc   Section        0  i2c_api.o(i.i2c_status)
    i2c_status                               0x00009acd   Thumb Code     8  i2c_api.o(i.i2c_status)
    i.i2c_stop                               0x00009ad4   Section        0  i2c_api.o(i.i2c_stop)
    i.i2c_wait_SI                            0x00009b14   Section        0  i2c_api.o(i.i2c_wait_SI)
    i2c_wait_SI                              0x00009b15   Thumb Code    36  i2c_api.o(i.i2c_wait_SI)
    i.i2c_write                              0x00009b3c   Section        0  i2c_api.o(i.i2c_write)
    i.main                                   0x00009bc0   Section        0  main.o(i.main)
    i.mbed_assert_internal                   0x00009d44   Section        0  assert.o(i.mbed_assert_internal)
    i.mbed_die                               0x00009d90   Section        0  board.o(i.mbed_die)
    i.mbed_mac_address                       0x00009e04   Section        0  ethernet_api.o(i.mbed_mac_address)
    i.mbed_main                              0x00009e78   Section        0  retarget.o(i.mbed_main)
    i.mbed_sdk_init                          0x00009e7a   Section        0  retarget.o(i.mbed_sdk_init)
    i.order                                  0x00009e7c   Section        0  analogin_api.o(i.order)
    order                                    0x00009e7d   Thumb Code    20  analogin_api.o(i.order)
    i.phy_read                               0x00009e90   Section        0  ethernet_api.o(i.phy_read)
    phy_read                                 0x00009e91   Thumb Code    54  ethernet_api.o(i.phy_read)
    i.phy_write                              0x00009ecc   Section        0  ethernet_api.o(i.phy_write)
    phy_write                                0x00009ecd   Thumb Code    48  ethernet_api.o(i.phy_write)
    i.pin_function                           0x00009f00   Section        0  pinmap.o(i.pin_function)
    i.pin_mode                               0x00009f74   Section        0  pinmap.o(i.pin_mode)
    i.pinmap_find_peripheral                 0x0000a000   Section        0  pinmap_common.o(i.pinmap_find_peripheral)
    i.pinmap_merge                           0x0000a020   Section        0  pinmap_common.o(i.pinmap_merge)
    i.pinmap_peripheral                      0x0000a060   Section        0  pinmap_common.o(i.pinmap_peripheral)
    i.pinmap_pinout                          0x0000a0ac   Section        0  pinmap_common.o(i.pinmap_pinout)
    i.pwmout_init                            0x0000a100   Section        0  pwmout_api.o(i.pwmout_init)
    i.pwmout_period_ms                       0x0000a1f4   Section        0  pwmout_api.o(i.pwmout_period_ms)
    i.pwmout_period_us                       0x0000a20c   Section        0  pwmout_api.o(i.pwmout_period_us)
    i.pwmout_write                           0x0000a250   Section        0  pwmout_api.o(i.pwmout_write)
    i.rinc                                   0x0000a2b8   Section        0  ethernet_api.o(i.rinc)
    rinc                                     0x0000a2b9   Thumb Code    12  ethernet_api.o(i.rinc)
    i.rxdscr_init                            0x0000a2c4   Section        0  ethernet_api.o(i.rxdscr_init)
    rxdscr_init                              0x0000a2c5   Thumb Code    80  ethernet_api.o(i.rxdscr_init)
    i.serial_baud                            0x0000a32c   Section        0  serial_api.o(i.serial_baud)
    i.serial_format                          0x0000a470   Section        0  serial_api.o(i.serial_format)
    i.serial_init                            0x0000a56c   Section        0  serial_api.o(i.serial_init)
    i.serial_putc                            0x0000a718   Section        0  serial_api.o(i.serial_putc)
    i.serial_writable                        0x0000a730   Section        0  serial_api.o(i.serial_writable)
    i.ticker_irq_handler                     0x0000a73c   Section        0  ticker_api.o(i.ticker_irq_handler)
    i.txdscr_init                            0x0000a798   Section        0  ethernet_api.o(i.txdscr_init)
    txdscr_init                              0x0000a799   Thumb Code    72  ethernet_api.o(i.txdscr_init)
    i.us_ticker_clear_interrupt              0x0000a7f4   Section        0  us_ticker.o(i.us_ticker_clear_interrupt)
    i.us_ticker_disable_interrupt            0x0000a800   Section        0  us_ticker.o(i.us_ticker_disable_interrupt)
    i.us_ticker_init                         0x0000a814   Section        0  us_ticker.o(i.us_ticker_init)
    i.us_ticker_irq_handler                  0x0000a888   Section        0  us_ticker_api.o(i.us_ticker_irq_handler)
    i.us_ticker_read                         0x0000a898   Section        0  us_ticker.o(i.us_ticker_read)
    i.us_ticker_set_interrupt                0x0000a8b4   Section        0  us_ticker.o(i.us_ticker_set_interrupt)
    i.wait                                   0x0000a8c8   Section        0  wait_api.o(i.wait)
    i.wait_ms                                0x0000a8f0   Section        0  wait_api.o(i.wait_ms)
    i.wait_us                                0x0000a902   Section        0  wait_api.o(i.wait_us)
    locale$$code                             0x0000a91c   Section       44  lc_numeric_c.o(locale$$code)
    locale$$code                             0x0000a948   Section       44  lc_ctype_c.o(locale$$code)
    x$fpl$basic                              0x0000a974   Section       24  basic.o(x$fpl$basic)
    $v0                                      0x0000a974   Number         0  basic.o(x$fpl$basic)
    x$fpl$d2f                                0x0000a98c   Section       98  d2f.o(x$fpl$d2f)
    $v0                                      0x0000a98c   Number         0  d2f.o(x$fpl$d2f)
    x$fpl$dadd                               0x0000a9f0   Section      336  daddsub_clz.o(x$fpl$dadd)
    $v0                                      0x0000a9f0   Number         0  daddsub_clz.o(x$fpl$dadd)
    _dadd1                                   0x0000aa01   Thumb Code     0  daddsub_clz.o(x$fpl$dadd)
    x$fpl$dcmpinf                            0x0000ab40   Section       24  dcmpi.o(x$fpl$dcmpinf)
    $v0                                      0x0000ab40   Number         0  dcmpi.o(x$fpl$dcmpinf)
    x$fpl$ddiv                               0x0000ab58   Section      688  ddiv.o(x$fpl$ddiv)
    $v0                                      0x0000ab58   Number         0  ddiv.o(x$fpl$ddiv)
    ddiv_entry                               0x0000ab5f   Thumb Code     0  ddiv.o(x$fpl$ddiv)
    x$fpl$deqf                               0x0000ae08   Section      120  deqf.o(x$fpl$deqf)
    $v0                                      0x0000ae08   Number         0  deqf.o(x$fpl$deqf)
    x$fpl$dfix                               0x0000ae80   Section       94  dfix.o(x$fpl$dfix)
    $v0                                      0x0000ae80   Number         0  dfix.o(x$fpl$dfix)
    x$fpl$dflt                               0x0000aede   Section       46  dflt_clz.o(x$fpl$dflt)
    $v0                                      0x0000aede   Number         0  dflt_clz.o(x$fpl$dflt)
    x$fpl$dfltu                              0x0000af0c   Section       38  dflt_clz.o(x$fpl$dfltu)
    $v0                                      0x0000af0c   Number         0  dflt_clz.o(x$fpl$dfltu)
    x$fpl$dleqf                              0x0000af34   Section      120  dleqf.o(x$fpl$dleqf)
    $v0                                      0x0000af34   Number         0  dleqf.o(x$fpl$dleqf)
    x$fpl$dmul                               0x0000afac   Section      340  dmul.o(x$fpl$dmul)
    $v0                                      0x0000afac   Number         0  dmul.o(x$fpl$dmul)
    x$fpl$dnaninf                            0x0000b100   Section      156  dnaninf.o(x$fpl$dnaninf)
    $v0                                      0x0000b100   Number         0  dnaninf.o(x$fpl$dnaninf)
    x$fpl$dretinf                            0x0000b19c   Section       12  dretinf.o(x$fpl$dretinf)
    $v0                                      0x0000b19c   Number         0  dretinf.o(x$fpl$dretinf)
    x$fpl$drleqf                             0x0000b1a8   Section      108  drleqf.o(x$fpl$drleqf)
    $v0                                      0x0000b1a8   Number         0  drleqf.o(x$fpl$drleqf)
    x$fpl$drsb                               0x0000b214   Section       22  daddsub_clz.o(x$fpl$drsb)
    $v0                                      0x0000b214   Number         0  daddsub_clz.o(x$fpl$drsb)
    x$fpl$dsub                               0x0000b22c   Section      468  daddsub_clz.o(x$fpl$dsub)
    $v0                                      0x0000b22c   Number         0  daddsub_clz.o(x$fpl$dsub)
    _dsub1                                   0x0000b23d   Thumb Code     0  daddsub_clz.o(x$fpl$dsub)
    x$fpl$f2d                                0x0000b400   Section       86  f2d.o(x$fpl$f2d)
    $v0                                      0x0000b400   Number         0  f2d.o(x$fpl$f2d)
    x$fpl$fnaninf                            0x0000b456   Section      140  fnaninf.o(x$fpl$fnaninf)
    $v0                                      0x0000b456   Number         0  fnaninf.o(x$fpl$fnaninf)
    x$fpl$fpinit                             0x0000b4e2   Section       10  fpinit.o(x$fpl$fpinit)
    $v0                                      0x0000b4e2   Number         0  fpinit.o(x$fpl$fpinit)
    x$fpl$fretinf                            0x0000b4ec   Section       10  fretinf.o(x$fpl$fretinf)
    $v0                                      0x0000b4ec   Number         0  fretinf.o(x$fpl$fretinf)
    x$fpl$printf1                            0x0000b4f6   Section        4  printf1.o(x$fpl$printf1)
    $v0                                      0x0000b4f6   Number         0  printf1.o(x$fpl$printf1)
    x$fpl$printf2                            0x0000b4fa   Section        4  printf2.o(x$fpl$printf2)
    $v0                                      0x0000b4fa   Number         0  printf2.o(x$fpl$printf2)
    x$fpl$usenofp                            0x0000b4fe   Section        0  usenofp.o(x$fpl$usenofp)
    .constdata                               0x0000b500   Section      108  analogin_api.o(.constdata)
    PinMap_ADC                               0x0000b500   Data         108  analogin_api.o(.constdata)
    .constdata                               0x0000b56c   Section     1275  adafruit_gfx.o(.constdata)
    font                                     0x0000b56c   Data        1275  adafruit_gfx.o(.constdata)
    .constdata                               0x0000ba67   Section       23  retarget.o(.constdata)
    .constdata                               0x0000ba80   Section       28  us_ticker_api.o(.constdata)
    us_interface                             0x0000ba80   Data          20  us_ticker_api.o(.constdata)
    us_data                                  0x0000ba94   Data           8  us_ticker_api.o(.constdata)
    .constdata                               0x0000ba9c   Section      296  i2c_api.o(.constdata)
    PinMap_I2C_SDA                           0x0000ba9c   Data         132  i2c_api.o(.constdata)
    PinMap_I2C_SCL                           0x0000bb20   Data         132  i2c_api.o(.constdata)
    I2C_addr_offset                          0x0000bba4   Data          32  i2c_api.o(.constdata)
    .constdata                               0x0000bbc4   Section      400  pwmout_api.o(.constdata)
    PinMap_PWM                               0x0000bbc4   Data         372  pwmout_api.o(.constdata)
    PWM_mr_offset                            0x0000bd38   Data          28  pwmout_api.o(.constdata)
    .constdata                               0x0000bd54   Section      300  serial_api.o(.constdata)
    PinMap_UART_TX                           0x0000bd54   Data         156  serial_api.o(.constdata)
    PinMap_UART_RX                           0x0000bdf0   Data         144  serial_api.o(.constdata)
    .constdata                               0x0000be80   Section       40  _printf_hex_int_ll_ptr.o(.constdata)
    uc_hextab                                0x0000be80   Data          20  _printf_hex_int_ll_ptr.o(.constdata)
    lc_hextab                                0x0000be94   Data          20  _printf_hex_int_ll_ptr.o(.constdata)
    .constdata                               0x0000bea8   Section       17  __printf_flags_ss_wp.o(.constdata)
    maptable                                 0x0000bea8   Data          17  __printf_flags_ss_wp.o(.constdata)
    .constdata                               0x0000bebc   Section        8  _printf_wctomb.o(.constdata)
    initial_mbstate                          0x0000bebc   Data           8  _printf_wctomb.o(.constdata)
    .constdata                               0x0000bec8   Section       48  cos_i.o(.constdata)
    C                                        0x0000bec8   Data          48  cos_i.o(.constdata)
    .constdata                               0x0000bef8   Section      200  rred.o(.constdata)
    pio2s                                    0x0000bef8   Data          48  rred.o(.constdata)
    twooverpi                                0x0000bf28   Data         152  rred.o(.constdata)
    .constdata                               0x0000bfc0   Section       32  rredf.o(.constdata)
    twooverpi                                0x0000bfc0   Data          32  rredf.o(.constdata)
    .constdata                               0x0000bfe0   Section       40  sin_i.o(.constdata)
    S                                        0x0000bfe0   Data          40  sin_i.o(.constdata)
    .constdata                               0x0000c008   Section       38  _printf_fp_hex.o(.constdata)
    lc_hextab                                0x0000c008   Data          19  _printf_fp_hex.o(.constdata)
    uc_hextab                                0x0000c01b   Data          19  _printf_fp_hex.o(.constdata)
    .constdata                               0x0000c030   Section      148  bigflt0.o(.constdata)
    tenpwrs_x                                0x0000c030   Data          60  bigflt0.o(.constdata)
    tenpwrs_i                                0x0000c06c   Data          64  bigflt0.o(.constdata)
    .constdata__ZTV10EaLcdBoard              0x0000c0c4   Section       28  ealcdboard.o(.constdata__ZTV10EaLcdBoard)
    .constdata__ZTV12Adafruit_GFX            0x0000c0e0   Section       44  adafruit_gfx.o(.constdata__ZTV12Adafruit_GFX)
    .constdata__ZTV14EaLcdBoardGPIO          0x0000c10c   Section       28  ealcdboardgpio.o(.constdata__ZTV14EaLcdBoardGPIO)
    .constdata__ZTV3Cue                      0x0000c128   Section       16  cue.o(.constdata__ZTV3Cue)
    .constdata__ZTV5GFXFb                    0x0000c138   Section       44  gfxfb.o(.constdata__ZTV5GFXFb)
    .constdata__ZTV7Display                  0x0000c164   Section      112  display.o(.constdata__ZTV7Display)
    .constdata__ZTVN4mbed10FileHandleE       0x0000c1d4   Section       44  retarget.o(.constdata__ZTVN4mbed10FileHandleE)
    .constdata__ZTVN4mbed6StreamE            0x0000c200   Section       68  stream.o(.constdata__ZTVN4mbed6StreamE)
    .constdata__ZTVN4mbed8EthernetE          0x0000c244   Section       16  ethernet.o(.constdata__ZTVN4mbed8EthernetE)
    .constdata__ZTVN4mbed8FileBaseE          0x0000c254   Section       16  filebase.o(.constdata__ZTVN4mbed8FileBaseE)
    .constdata__ZTVN4mbed8FileLikeE          0x0000c264   Section       60  filelike.o(.constdata__ZTVN4mbed8FileLikeE)
    .conststring                             0x0000c2a0   Section       72  main.o(.conststring)
    .conststring                             0x0000c2e8   Section       68  analogin_api.o(.conststring)
    .conststring                             0x0000c32c   Section       66  pwmout_api.o(.conststring)
    .conststring                             0x0000c370   Section      198  serial_api.o(.conststring)
    locale$$data                             0x0000c458   Section       28  lc_numeric_c.o(locale$$data)
    __lcnum_c_name                           0x0000c45c   Data           2  lc_numeric_c.o(locale$$data)
    __lcnum_c_start                          0x0000c464   Data           0  lc_numeric_c.o(locale$$data)
    __lcnum_c_point                          0x0000c470   Data           0  lc_numeric_c.o(locale$$data)
    __lcnum_c_thousands                      0x0000c472   Data           0  lc_numeric_c.o(locale$$data)
    __lcnum_c_grouping                       0x0000c473   Data           0  lc_numeric_c.o(locale$$data)
    locale$$data                             0x0000c474   Section      272  lc_ctype_c.o(locale$$data)
    __lcnum_c_end                            0x0000c474   Data           0  lc_numeric_c.o(locale$$data)
    __lcctype_c_name                         0x0000c478   Data           2  lc_ctype_c.o(locale$$data)
    __lcctype_c_start                        0x0000c480   Data           0  lc_ctype_c.o(locale$$data)
    .init_array                              0x0000c584   Section        4  main.o(.init_array)
    __lcctype_c_end                          0x0000c584   Data           0  lc_ctype_c.o(locale$$data)
    .init_array                              0x0000c588   Section        0  init_aeabi.o(.init_array)
    .data                                    0x10000000   Section    14376  main.o(.data)
    poolTable                                0x10000000   Data       14337  main.o(.data)
    savedState                               0x10003818   Data          16  main.o(.data)
    .data                                    0x10003828   Section       16  system_lpc407x_8x_177x_8x.o(.data)
    .data                                    0x10003838   Section        8  display.o(.data)
    _ZGVtheDisplay                           0x10003838   Data           4  display.o(.data)
    theDisplay                               0x1000383c   Data           4  display.o(.data)
    .data                                    0x10003840   Section        4  i2c.o(.data)
    .data                                    0x10003844   Section        4  us_ticker.o(.data)
    .data                                    0x10003848   Section       34  ethernet_api.o(.data)
    send_doff                                0x10003848   Data           4  ethernet_api.o(.data)
    send_idx                                 0x1000384c   Data           4  ethernet_api.o(.data)
    send_size                                0x10003850   Data           4  ethernet_api.o(.data)
    receive_soff                             0x10003854   Data           4  ethernet_api.o(.data)
    receive_idx                              0x10003858   Data           4  ethernet_api.o(.data)
    phy_id                                   0x1000385c   Data           4  ethernet_api.o(.data)
    _macRetrieved                            0x10003860   Data           4  ethernet_api.o(.data)
    _macAddr                                 0x10003864   Data           6  ethernet_api.o(.data)
    .data                                    0x1000386c   Section       16  sdram.o(.data)
    ringosccount                             0x1000386c   Data           8  sdram.o(.data)
    okToUseSdramForHeap                      0x10003874   Data           1  sdram.o(.data)
    initialized                              0x10003875   Data           1  sdram.o(.data)
    lastReturnedBlock                        0x10003878   Data           4  sdram.o(.data)
    .data                                    0x1000387c   Section        8  us_ticker_api.o(.data)
    events                                   0x1000387c   Data           8  us_ticker_api.o(.data)
    .data                                    0x10003884   Section        4  filebase.o(.data)
    .data                                    0x10003888   Section        4  pwmout_api.o(.data)
    pwm_clock_mhz                            0x10003888   Data           4  pwmout_api.o(.data)
    .data                                    0x1000388c   Section       16  serial_api.o(.data)
    irq_handler                              0x1000388c   Data           4  serial_api.o(.data)
    .data                                    0x1000389c   Section        1  lcdcontroller.o(.data)
    .data                                    0x100038a0   Section        4  stdio_streams.o(.data)
    .data                                    0x100038a4   Section        4  stdio_streams.o(.data)
    .data                                    0x100038a8   Section        4  stdio_streams.o(.data)
    AHBSRAM1                                 0x100038b0   Section     5476  ethernet_api.o(AHBSRAM1)
    .bss                                     0x10004e18   Section      880  main.o(.bss)
    jsBtns                                   0x100050e0   Data         120  main.o(.bss)
    .bss                                     0x10005188   Section       64  retarget.o(.bss)
    filehandles                              0x10005188   Data          64  retarget.o(.bss)
    .bss                                     0x100051c8   Section     1024  ealcdboard.o(.bss)
    eaLcdTmpBuffer                           0x100051c8   Data        1024  ealcdboard.o(.bss)
    .bss                                     0x100055c8   Section       84  stdio_streams.o(.bss)
    .bss                                     0x1000561c   Section       84  stdio_streams.o(.bss)
    .bss                                     0x10005670   Section       84  stdio_streams.o(.bss)
    .bss                                     0x100056c4   Section        4  rt_heap_descriptor.o(.bss)
    __rt_heap_descriptor_data                0x100056c4   Data           4  rt_heap_descriptor.o(.bss)
    .bss                                     0x100056c8   Section        4  rt_new_handler_addr.o(.bss)
    __rt_new_handler_addr_data               0x100056c8   Data           4  rt_new_handler_addr.o(.bss)
    .bss                                     0x100056cc   Section        4  rt_ddtor_pointer_addr.o(.bss)
    __rt_ddtor_pointer_addr_data             0x100056cc   Data           4  rt_ddtor_pointer_addr.o(.bss)
    .bss                                     0x100056d0   Section        4  rt_errno_addr.o(.bss)
    __aeabi_errno_addr_data                  0x100056d0   Data           4  rt_errno_addr.o(.bss)
    .bss                                     0x100056d4   Section       20  rt_locale.o(.bss)
    __rt_locale_data                         0x100056d4   Data          20  rt_locale.o(.bss)
    .bss                                     0x100056e8   Section        4  rt_eh_globals_addr.o(.bss)
    __rt_eh_globals_addr_data                0x100056e8   Data           4  rt_eh_globals_addr.o(.bss)

    Global Symbols

    Symbol Name                              Value     Ov Type        Size  Object(Section)

    BuildAttributes$$THM_ISAv4$E$P$D$K$B$S$7EM$VFPi3$EXTD16$VFPS$VFMA$PE$A:L22UL41UL21$X:L11$S22US41US21$IEEE1$IW$USESV6$~STKCKD$USESV7$~SHL$OTIME$ROPI$IEEEX$EBA8$UX$STANDARDLIB$REQ8$PRES8$EABIv2 0x00000000   Number         0  anon$$obj.o ABSOLUTE
    __ARM_use_no_argv                        0x00000000   Number         0  main.o ABSOLUTE
    __Vectors                                0x00000000   Data           4  startup_lpc407x_8x_177x_8x.o(RESET)
    __dso_handle                             0x00000000   Number         0  startup_lpc407x_8x_177x_8x.o(RESET)
    _printf_flags                            0x00000000   Number         0  printf_stubs.o ABSOLUTE
    _printf_return_value                     0x00000000   Number         0  printf_stubs.o ABSOLUTE
    _printf_sizespec                         0x00000000   Number         0  printf_stubs.o ABSOLUTE
    _printf_widthprec                        0x00000000   Number         0  printf_stubs.o ABSOLUTE
    SHT$$ARM_EXIDX$$Base                      - Undefined Reference
    SHT$$ARM_EXIDX$$Limit                     - Undefined Reference
    __ARM::default_unexpected_handler()       - Undefined Weak Reference
    __ARM_exceptions_buffer_required          - Undefined Weak Reference
    __ARM_exceptions_init                     - Undefined Weak Reference
    __aeabi_unwind_cpp_pr1                    - Undefined Weak Reference
    __aeabi_unwind_cpp_pr2                    - Undefined Weak Reference
    __alloca_initialize                       - Undefined Weak Reference
    __arm_preinit_                            - Undefined Weak Reference
    __cxa_begin_cleanup                       - Undefined Weak Reference
    __cxa_type_match                          - Undefined Weak Reference
    __rt_lib_shutdown                         - Undefined Weak Reference
    __sigvec_lookup                           - Undefined Weak Reference
    __user_heap_extent                        - Undefined Weak Reference
    _atexit_init                              - Undefined Weak Reference
    _clock_init                               - Undefined Weak Reference
    _fp_trap_init                             - Undefined Weak Reference
    _fp_trap_shutdown                         - Undefined Weak Reference
    _get_lc_collate                           - Undefined Weak Reference
    _get_lc_monetary                          - Undefined Weak Reference
    _get_lc_time                              - Undefined Weak Reference
    _getenv_init                              - Undefined Weak Reference
    _handle_redirection                       - Undefined Weak Reference
    _mutex_acquire                            - Undefined Weak Reference
    _mutex_free                               - Undefined Weak Reference
    _mutex_release                            - Undefined Weak Reference
    _printf_mbtowc                            - Undefined Weak Reference
    _printf_wc                                - Undefined Weak Reference
    _rand_init                                - Undefined Weak Reference
    _signal_finish                            - Undefined Weak Reference
    _signal_init                              - Undefined Weak Reference
    __main                                   0x000000e5   Thumb Code     8  __main.o(!!!main)
    __scatterload                            0x000000ed   Thumb Code     0  __scatter.o(!!!scatter)
    __scatterload_rt2                        0x000000ed   Thumb Code    44  __scatter.o(!!!scatter)
    __scatterload_rt2_thumb_only             0x000000ed   Thumb Code     0  __scatter.o(!!!scatter)
    __scatterload_null                       0x000000fb   Thumb Code     0  __scatter.o(!!!scatter)
    __decompress                             0x00000121   Thumb Code    90  __dczerorl2.o(!!dczerorl2)
    __decompress1                            0x00000121   Thumb Code     0  __dczerorl2.o(!!dczerorl2)
    __scatterload_zeroinit                   0x0000017d   Thumb Code    28  __scatter_zi.o(!!handler_zi)
    _printf_n                                0x00000199   Thumb Code     0  _printf_n.o(.ARM.Collect$$_printf_percent$$00000001)
    _printf_percent                          0x00000199   Thumb Code     0  _printf_percent.o(.ARM.Collect$$_printf_percent$$00000000)
    _printf_p                                0x0000019f   Thumb Code     0  _printf_p.o(.ARM.Collect$$_printf_percent$$00000002)
    _printf_f                                0x000001a5   Thumb Code     0  _printf_f.o(.ARM.Collect$$_printf_percent$$00000003)
    _printf_e                                0x000001ab   Thumb Code     0  _printf_e.o(.ARM.Collect$$_printf_percent$$00000004)
    _printf_g                                0x000001b1   Thumb Code     0  _printf_g.o(.ARM.Collect$$_printf_percent$$00000005)
    _printf_a                                0x000001b7   Thumb Code     0  _printf_a.o(.ARM.Collect$$_printf_percent$$00000006)
    _printf_ll                               0x000001bd   Thumb Code     0  _printf_ll.o(.ARM.Collect$$_printf_percent$$00000007)
    _printf_i                                0x000001c7   Thumb Code     0  _printf_i.o(.ARM.Collect$$_printf_percent$$00000008)
    _printf_d                                0x000001cd   Thumb Code     0  _printf_d.o(.ARM.Collect$$_printf_percent$$00000009)
    _printf_u                                0x000001d3   Thumb Code     0  _printf_u.o(.ARM.Collect$$_printf_percent$$0000000A)
    _printf_o                                0x000001d9   Thumb Code     0  _printf_o.o(.ARM.Collect$$_printf_percent$$0000000B)
    _printf_x                                0x000001df   Thumb Code     0  _printf_x.o(.ARM.Collect$$_printf_percent$$0000000C)
    _printf_lli                              0x000001e5   Thumb Code     0  _printf_lli.o(.ARM.Collect$$_printf_percent$$0000000D)
    _printf_lld                              0x000001eb   Thumb Code     0  _printf_lld.o(.ARM.Collect$$_printf_percent$$0000000E)
    _printf_llu                              0x000001f1   Thumb Code     0  _printf_llu.o(.ARM.Collect$$_printf_percent$$0000000F)
    _printf_llo                              0x000001f7   Thumb Code     0  _printf_llo.o(.ARM.Collect$$_printf_percent$$00000010)
    _printf_llx                              0x000001fd   Thumb Code     0  _printf_llx.o(.ARM.Collect$$_printf_percent$$00000011)
    _printf_l                                0x00000203   Thumb Code     0  _printf_l.o(.ARM.Collect$$_printf_percent$$00000012)
    _printf_c                                0x0000020d   Thumb Code     0  _printf_c.o(.ARM.Collect$$_printf_percent$$00000013)
    _printf_s                                0x00000213   Thumb Code     0  _printf_s.o(.ARM.Collect$$_printf_percent$$00000014)
    _printf_lc                               0x00000219   Thumb Code     0  _printf_lc.o(.ARM.Collect$$_printf_percent$$00000015)
    _printf_ls                               0x0000021f   Thumb Code     0  _printf_ls.o(.ARM.Collect$$_printf_percent$$00000016)
    _printf_percent_end                      0x00000225   Thumb Code     0  _printf_percent_end.o(.ARM.Collect$$_printf_percent$$00000017)
    __rt_lib_init                            0x00000229   Thumb Code     0  libinit.o(.ARM.Collect$$libinit$$00000000)
    __rt_lib_init_fp_1                       0x0000022b   Thumb Code     0  libinit2.o(.ARM.Collect$$libinit$$00000001)
    __rt_lib_init_heap_2                     0x0000022f   Thumb Code     0  libinit2.o(.ARM.Collect$$libinit$$00000005)
    __rt_lib_init_preinit_1                  0x0000022f   Thumb Code     0  libinit2.o(.ARM.Collect$$libinit$$00000004)
    __rt_lib_init_heap_1                     0x00000237   Thumb Code     0  libinit2.o(.ARM.Collect$$libinit$$0000000A)
    __rt_lib_init_lc_common                  0x00000237   Thumb Code     0  libinit2.o(.ARM.Collect$$libinit$$0000000F)
    __rt_lib_init_rand_1                     0x00000237   Thumb Code     0  libinit2.o(.ARM.Collect$$libinit$$0000000E)
    __rt_lib_init_user_alloc_1               0x00000237   Thumb Code     0  libinit2.o(.ARM.Collect$$libinit$$0000000C)
    __rt_lib_init_lc_collate_1               0x0000023d   Thumb Code     0  libinit2.o(.ARM.Collect$$libinit$$00000011)
    __rt_lib_init_lc_ctype_2                 0x0000023d   Thumb Code     0  libinit2.o(.ARM.Collect$$libinit$$00000012)
    __rt_lib_init_lc_ctype_1                 0x00000249   Thumb Code     0  libinit2.o(.ARM.Collect$$libinit$$00000013)
    __rt_lib_init_lc_monetary_1              0x00000249   Thumb Code     0  libinit2.o(.ARM.Collect$$libinit$$00000015)
    __rt_lib_init_lc_numeric_2               0x00000249   Thumb Code     0  libinit2.o(.ARM.Collect$$libinit$$00000016)
    __rt_lib_init_atexit_1                   0x00000253   Thumb Code     0  libinit2.o(.ARM.Collect$$libinit$$0000001B)
    __rt_lib_init_clock_1                    0x00000253   Thumb Code     0  libinit2.o(.ARM.Collect$$libinit$$00000021)
    __rt_lib_init_fp_trap_1                  0x00000253   Thumb Code     0  libinit2.o(.ARM.Collect$$libinit$$0000001F)
    __rt_lib_init_getenv_1                   0x00000253   Thumb Code     0  libinit2.o(.ARM.Collect$$libinit$$00000023)
    __rt_lib_init_lc_numeric_1               0x00000253   Thumb Code     0  libinit2.o(.ARM.Collect$$libinit$$00000017)
    __rt_lib_init_lc_time_1                  0x00000253   Thumb Code     0  libinit2.o(.ARM.Collect$$libinit$$00000019)
    __rt_lib_init_signal_1                   0x00000253   Thumb Code     0  libinit2.o(.ARM.Collect$$libinit$$0000001D)
    __rt_lib_init_stdio_2                    0x00000253   Thumb Code     0  libinit2.o(.ARM.Collect$$libinit$$00000024)
    __rt_lib_init_alloca_1                   0x00000257   Thumb Code     0  libinit2.o(.ARM.Collect$$libinit$$0000002E)
    __rt_lib_init_argv_1                     0x00000257   Thumb Code     0  libinit2.o(.ARM.Collect$$libinit$$0000002C)
    __rt_lib_init_cpp_2                      0x00000257   Thumb Code     0  libinit2.o(.ARM.Collect$$libinit$$00000031)
    __rt_lib_init_exceptions_1               0x00000257   Thumb Code     0  libinit2.o(.ARM.Collect$$libinit$$00000030)
    __rt_lib_init_stdio_1                    0x00000257   Thumb Code     0  libinit2.o(.ARM.Collect$$libinit$$00000025)
    __rt_lib_init_cpp_1                      0x0000025b   Thumb Code     0  libinit2.o(.ARM.Collect$$libinit$$00000032)
    __rt_lib_init_return                     0x0000025b   Thumb Code     0  libinit2.o(.ARM.Collect$$libinit$$00000033)
    __rt_entry                               0x0000025d   Thumb Code     0  __rtentry.o(.ARM.Collect$$rtentry$$00000000)
    __rt_entry_presh_1                       0x0000025d   Thumb Code     0  __rtentry2.o(.ARM.Collect$$rtentry$$00000002)
    __rt_entry_sh                            0x0000025d   Thumb Code     0  __rtentry4.o(.ARM.Collect$$rtentry$$00000004)
    __rt_lib_shutdown_cpp_2                  0x0000025d   Thumb Code     0  libshutdown2.o(.ARM.Collect$$libshutdown$$00000002)
    __rt_lib_shutdown_stdio_2                0x0000025d   Thumb Code     0  libshutdown2.o(.ARM.Collect$$libshutdown$$00000004)
    __rt_entry_li                            0x00000263   Thumb Code     0  __rtentry2.o(.ARM.Collect$$rtentry$$0000000A)
    __rt_entry_postsh_1                      0x00000263   Thumb Code     0  __rtentry2.o(.ARM.Collect$$rtentry$$00000009)
    __rt_entry_main                          0x00000267   Thumb Code     0  __rtentry2.o(.ARM.Collect$$rtentry$$0000000D)
    __rt_entry_postli_1                      0x00000267   Thumb Code     0  __rtentry2.o(.ARM.Collect$$rtentry$$0000000C)
    Reset_Handler                            0x00000271   Thumb Code     8  startup_lpc407x_8x_177x_8x.o(.text)
    _maybe_terminate_alloc                   0x00000271   Thumb Code     0  maybetermalloc1.o(.emb_text)
    NMI_Handler                              0x00000279   Thumb Code     2  startup_lpc407x_8x_177x_8x.o(.text)
    HardFault_Handler                        0x0000027b   Thumb Code     2  startup_lpc407x_8x_177x_8x.o(.text)
    MemManage_Handler                        0x0000027d   Thumb Code     2  startup_lpc407x_8x_177x_8x.o(.text)
    BusFault_Handler                         0x0000027f   Thumb Code     2  startup_lpc407x_8x_177x_8x.o(.text)
    UsageFault_Handler                       0x00000281   Thumb Code     2  startup_lpc407x_8x_177x_8x.o(.text)
    SVC_Handler                              0x00000283   Thumb Code     2  startup_lpc407x_8x_177x_8x.o(.text)
    DebugMon_Handler                         0x00000285   Thumb Code     2  startup_lpc407x_8x_177x_8x.o(.text)
    PendSV_Handler                           0x00000287   Thumb Code     2  startup_lpc407x_8x_177x_8x.o(.text)
    SysTick_Handler                          0x00000289   Thumb Code     2  startup_lpc407x_8x_177x_8x.o(.text)
    ADC_IRQHandler                           0x0000028b   Thumb Code     0  startup_lpc407x_8x_177x_8x.o(.text)
    BOD_IRQHandler                           0x0000028b   Thumb Code     0  startup_lpc407x_8x_177x_8x.o(.text)
    CANActivity_IRQHandler                   0x0000028b   Thumb Code     0  startup_lpc407x_8x_177x_8x.o(.text)
    CAN_IRQHandler                           0x0000028b   Thumb Code     0  startup_lpc407x_8x_177x_8x.o(.text)
    DMA_IRQHandler                           0x0000028b   Thumb Code     0  startup_lpc407x_8x_177x_8x.o(.text)
    EEPROM_IRQHandler                        0x0000028b   Thumb Code     0  startup_lpc407x_8x_177x_8x.o(.text)
    EINT0_IRQHandler                         0x0000028b   Thumb Code     0  startup_lpc407x_8x_177x_8x.o(.text)
    EINT1_IRQHandler                         0x0000028b   Thumb Code     0  startup_lpc407x_8x_177x_8x.o(.text)
    EINT2_IRQHandler                         0x0000028b   Thumb Code     0  startup_lpc407x_8x_177x_8x.o(.text)
    EINT3_IRQHandler                         0x0000028b   Thumb Code     0  startup_lpc407x_8x_177x_8x.o(.text)
    ENET_IRQHandler                          0x0000028b   Thumb Code     0  startup_lpc407x_8x_177x_8x.o(.text)
    GPIO_IRQHandler                          0x0000028b   Thumb Code     0  startup_lpc407x_8x_177x_8x.o(.text)
    I2C0_IRQHandler                          0x0000028b   Thumb Code     0  startup_lpc407x_8x_177x_8x.o(.text)
    I2C1_IRQHandler                          0x0000028b   Thumb Code     0  startup_lpc407x_8x_177x_8x.o(.text)
    I2C2_IRQHandler                          0x0000028b   Thumb Code     0  startup_lpc407x_8x_177x_8x.o(.text)
    I2S_IRQHandler                           0x0000028b   Thumb Code     0  startup_lpc407x_8x_177x_8x.o(.text)
    LCD_IRQHandler                           0x0000028b   Thumb Code     0  startup_lpc407x_8x_177x_8x.o(.text)
    MCI_IRQHandler                           0x0000028b   Thumb Code     0  startup_lpc407x_8x_177x_8x.o(.text)
    MCPWM_IRQHandler                         0x0000028b   Thumb Code     0  startup_lpc407x_8x_177x_8x.o(.text)
    PLL0_IRQHandler                          0x0000028b   Thumb Code     0  startup_lpc407x_8x_177x_8x.o(.text)
    PLL1_IRQHandler                          0x0000028b   Thumb Code     0  startup_lpc407x_8x_177x_8x.o(.text)
    PWM0_IRQHandler                          0x0000028b   Thumb Code     0  startup_lpc407x_8x_177x_8x.o(.text)
    PWM1_IRQHandler                          0x0000028b   Thumb Code     0  startup_lpc407x_8x_177x_8x.o(.text)
    QEI_IRQHandler                           0x0000028b   Thumb Code     0  startup_lpc407x_8x_177x_8x.o(.text)
    RTC_IRQHandler                           0x0000028b   Thumb Code     0  startup_lpc407x_8x_177x_8x.o(.text)
    SSP0_IRQHandler                          0x0000028b   Thumb Code     0  startup_lpc407x_8x_177x_8x.o(.text)
    SSP1_IRQHandler                          0x0000028b   Thumb Code     0  startup_lpc407x_8x_177x_8x.o(.text)
    SSP2_IRQHandler                          0x0000028b   Thumb Code     0  startup_lpc407x_8x_177x_8x.o(.text)
    TIMER0_IRQHandler                        0x0000028b   Thumb Code     0  startup_lpc407x_8x_177x_8x.o(.text)
    TIMER1_IRQHandler                        0x0000028b   Thumb Code     0  startup_lpc407x_8x_177x_8x.o(.text)
    TIMER2_IRQHandler                        0x0000028b   Thumb Code     0  startup_lpc407x_8x_177x_8x.o(.text)
    TIMER3_IRQHandler                        0x0000028b   Thumb Code     0  startup_lpc407x_8x_177x_8x.o(.text)
    UART0_IRQHandler                         0x0000028b   Thumb Code     0  startup_lpc407x_8x_177x_8x.o(.text)
    UART1_IRQHandler                         0x0000028b   Thumb Code     0  startup_lpc407x_8x_177x_8x.o(.text)
    UART2_IRQHandler                         0x0000028b   Thumb Code     0  startup_lpc407x_8x_177x_8x.o(.text)
    UART3_IRQHandler                         0x0000028b   Thumb Code     0  startup_lpc407x_8x_177x_8x.o(.text)
    UART4_IRQHandler                         0x0000028b   Thumb Code     0  startup_lpc407x_8x_177x_8x.o(.text)
    USBActivity_IRQHandler                   0x0000028b   Thumb Code     0  startup_lpc407x_8x_177x_8x.o(.text)
    USB_IRQHandler                           0x0000028b   Thumb Code     0  startup_lpc407x_8x_177x_8x.o(.text)
    WDT_IRQHandler                           0x0000028b   Thumb Code     0  startup_lpc407x_8x_177x_8x.o(.text)
    malloc                                   0x00000295   Thumb Code    94  h1_alloc.o(.text)
    vfprintf                                 0x000002f3   Thumb Code    10  vfprintf.o(.text)
    free                                     0x00000301   Thumb Code    78  h1_free.o(.text)
    __c89vfprintf                            0x0000034f   Thumb Code    10  c89vfprintf.o(.text)
    __2sprintf                               0x00000359   Thumb Code    38  __2sprintf.o(.text)
    _printf_longlong_hex                     0x00000385   Thumb Code    86  _printf_hex_int_ll_ptr.o(.text)
    _printf_int_hex                          0x000003db   Thumb Code    28  _printf_hex_int_ll_ptr.o(.text)
    _printf_ll_hex                           0x000003f7   Thumb Code    12  _printf_hex_int_ll_ptr.o(.text)
    _printf_hex_ptr                          0x00000403   Thumb Code    18  _printf_hex_int_ll_ptr.o(.text)
    __printf                                 0x00000419   Thumb Code   388  __printf_flags_ss_wp.o(.text)
    __0sscanf                                0x000005a1   Thumb Code    52  __0sscanf.o(.text)
    _scanf_int                               0x000005dd   Thumb Code   332  _scanf_int.o(.text)
    _do_fflush                               0x00000729   Thumb Code    54  fflush.o(.text)
    fflush                                   0x0000075f   Thumb Code    42  fflush.o(.text)
    freopen                                  0x0000078d   Thumb Code   158  fopen.o(.text)
    fopen                                    0x0000082b   Thumb Code    74  fopen.o(.text)
    setbuf                                   0x00000879   Thumb Code    20  setbuf.o(.text)
    _fclose_internal                         0x0000088d   Thumb Code    76  fclose.o(.text)
    fclose                                   0x0000088d   Thumb Code     0  fclose.o(.text)
    __aeabi_atexit                           0x000008d9   Thumb Code    46  aeabi_atexit.o(.text)
    strlen                                   0x00000907   Thumb Code    62  strlen.o(.text)
    strncmp                                  0x00000945   Thumb Code   150  strncmp.o(.text)
    __aeabi_memcpy                           0x000009db   Thumb Code     0  rt_memcpy_v6.o(.text)
    __rt_memcpy                              0x000009db   Thumb Code   138  rt_memcpy_v6.o(.text)
    _memcpy_lastbytes                        0x00000a41   Thumb Code     0  rt_memcpy_v6.o(.text)
    __aeabi_memcpy4                          0x00000a65   Thumb Code     0  rt_memcpy_w.o(.text)
    __aeabi_memcpy8                          0x00000a65   Thumb Code     0  rt_memcpy_w.o(.text)
    __rt_memcpy_w                            0x00000a65   Thumb Code   100  rt_memcpy_w.o(.text)
    _memcpy_lastbytes_aligned                0x00000aad   Thumb Code     0  rt_memcpy_w.o(.text)
    __aeabi_memclr                           0x00000ac9   Thumb Code     0  rt_memclr.o(.text)
    __rt_memclr                              0x00000ac9   Thumb Code    68  rt_memclr.o(.text)
    _memset                                  0x00000acd   Thumb Code     0  rt_memclr.o(.text)
    __aeabi_memclr4                          0x00000b0d   Thumb Code     0  rt_memclr_w.o(.text)
    __aeabi_memclr8                          0x00000b0d   Thumb Code     0  rt_memclr_w.o(.text)
    __rt_memclr_w                            0x00000b0d   Thumb Code    78  rt_memclr_w.o(.text)
    _memset_w                                0x00000b11   Thumb Code     0  rt_memclr_w.o(.text)
    strcmp                                   0x00000b5d   Thumb Code   128  strcmpv7m.o(.text)
    __cpp_initialize__aeabi_                 0x00000bdd   Thumb Code    26  init_aeabi.o(.text)
    __rt_heap_descriptor                     0x00000c01   Thumb Code     8  rt_heap_descriptor.o(.text)
    __rt_new_handler_addr                    0x00000c09   Thumb Code     8  rt_new_handler_addr.o(.text)
    __rt_ddtor_pointer_addr                  0x00000c11   Thumb Code     8  rt_ddtor_pointer_addr.o(.text)
    __use_no_heap                            0x00000c19   Thumb Code     2  hguard.o(.text)
    __heap$guard                             0x00000c1b   Thumb Code     2  hguard.o(.text)
    _terminate_user_alloc                    0x00000c1d   Thumb Code     2  init_alloc.o(.text)
    _init_user_alloc                         0x00000c1f   Thumb Code     2  init_alloc.o(.text)
    __Heap_Full                              0x00000c21   Thumb Code    34  init_alloc.o(.text)
    __Heap_Broken                            0x00000c43   Thumb Code     6  init_alloc.o(.text)
    _init_alloc                              0x00000c49   Thumb Code    94  init_alloc.o(.text)
    __Heap_Initialize                        0x00000ca7   Thumb Code    10  h1_init.o(.text)
    __Heap_DescSize                          0x00000cb1   Thumb Code     4  h1_init.o(.text)
    __read_errno                             0x00000cb5   Thumb Code    10  _rserrno.o(.text)
    __set_errno                              0x00000cbf   Thumb Code    12  _rserrno.o(.text)
    _printf_pre_padding                      0x00000ccb   Thumb Code    44  _printf_pad.o(.text)
    _printf_post_padding                     0x00000cf7   Thumb Code    34  _printf_pad.o(.text)
    _printf_truncate_signed                  0x00000d19   Thumb Code    18  _printf_truncate.o(.text)
    _printf_truncate_unsigned                0x00000d2b   Thumb Code    18  _printf_truncate.o(.text)
    _printf_str                              0x00000d3d   Thumb Code    82  _printf_str.o(.text)
    _printf_int_common                       0x00000d8f   Thumb Code   178  _printf_intcommon.o(.text)
    _printf_int_dec                          0x00000e41   Thumb Code   104  _printf_dec.o(.text)
    _printf_charcount                        0x00000eb9   Thumb Code    40  _printf_charcount.o(.text)
    _printf_char_common                      0x00000eeb   Thumb Code    32  _printf_char_common.o(.text)
    _sputc                                   0x00000f11   Thumb Code    10  _sputc.o(.text)
    _printf_char_file                        0x00000f1d   Thumb Code    32  _printf_char_file.o(.text)
    _printf_wctomb                           0x00000f41   Thumb Code   182  _printf_wctomb.o(.text)
    _printf_longlong_dec                     0x00000ffd   Thumb Code   108  _printf_longlong_dec.o(.text)
    _printf_longlong_oct                     0x00001079   Thumb Code    68  _printf_oct_int_ll.o(.text)
    _printf_int_oct                          0x000010bd   Thumb Code    24  _printf_oct_int_ll.o(.text)
    _printf_ll_oct                           0x000010d5   Thumb Code    12  _printf_oct_int_ll.o(.text)
    _chval                                   0x000010e9   Thumb Code    28  _chval.o(.text)
    __vfscanf_char                           0x00001111   Thumb Code    24  scanf_char.o(.text)
    _sgetc                                   0x00001131   Thumb Code    30  _sgetc.o(.text)
    _sbackspace                              0x0000114f   Thumb Code    34  _sgetc.o(.text)
    ferror                                   0x00001171   Thumb Code     8  ferror.o(.text)
    __flsbuf                                 0x00001179   Thumb Code   470  flsbuf.o(.text)
    __flsbuf_byte                            0x00001179   Thumb Code     0  flsbuf.o(.text)
    __flsbuf_wide                            0x00001179   Thumb Code     0  flsbuf.o(.text)
    _fseek                                   0x00001351   Thumb Code   242  fseek.o(.text)
    fseek                                    0x00001351   Thumb Code     0  fseek.o(.text)
    setvbuf                                  0x00001449   Thumb Code    70  setvbuf.o(.text)
    _seterr                                  0x00001491   Thumb Code    20  stdio.o(.text)
    _writebuf                                0x000014a5   Thumb Code    84  stdio.o(.text)
    _fflush                                  0x000014f9   Thumb Code    70  stdio.o(.text)
    _deferredlazyseek                        0x0000153f   Thumb Code    60  stdio.o(.text)
    _initio                                  0x00001581   Thumb Code   210  initio.o(.text)
    _terminateio                             0x00001653   Thumb Code    56  initio.o(.text)
    __cxa_finalize                           0x000016b9   Thumb Code    66  cxa_finalize.o(.text)
    __rt_SIGPVFN                             0x000016fb   Thumb Code    14  defsig_pvfn_outer.o(.text)
    __default_new_handler()                  0x00001709   Thumb Code     4  arm_newhandler_noexceptions.o(.text)
    __aeabi_errno_addr                       0x0000170d   Thumb Code     8  rt_errno_addr.o(.text)
    __errno                                  0x0000170d   Thumb Code     0  rt_errno_addr.o(.text)
    __rt_errno_addr                          0x0000170d   Thumb Code     0  rt_errno_addr.o(.text)
    __Heap_ProvideMemory                     0x00001715   Thumb Code    52  h1_extend.o(.text)
    _ll_udiv10                               0x00001749   Thumb Code   138  lludiv10.o(.text)
    isspace                                  0x000017d3   Thumb Code    18  isspace.o(.text)
    __lib_sel_fp_printf                      0x000017e5   Thumb Code     2  _printf_fp_dec.o(.text)
    _printf_fp_dec_real                      0x00001993   Thumb Code   620  _printf_fp_dec.o(.text)
    _printf_fp_hex_real                      0x00001c01   Thumb Code   756  _printf_fp_hex.o(.text)
    _printf_cs_common                        0x00001efd   Thumb Code    20  _printf_char.o(.text)
    _printf_char                             0x00001f11   Thumb Code    16  _printf_char.o(.text)
    _printf_string                           0x00001f21   Thumb Code     8  _printf_char.o(.text)
    _printf_lcs_common                       0x00001f29   Thumb Code    20  _printf_wchar.o(.text)
    _printf_wchar                            0x00001f3d   Thumb Code    16  _printf_wchar.o(.text)
    _printf_wstring                          0x00001f4d   Thumb Code     8  _printf_wchar.o(.text)
    __vfscanf                                0x00001f55   Thumb Code   878  _scanf.o(.text)
    _ftell_internal                          0x000022c9   Thumb Code    66  ftell.o(.text)
    ftell                                    0x000022c9   Thumb Code     0  ftell.o(.text)
    _wcrtomb                                 0x0000230b   Thumb Code    64  _wcrtomb.o(.text)
    __sig_exit                               0x0000234b   Thumb Code    10  defsig_exit.o(.text)
    __rt_SIGRTRED                            0x00002355   Thumb Code    14  defsig_rtred_outer.o(.text)
    __rt_SIGRTMEM                            0x00002363   Thumb Code    14  defsig_rtmem_outer.o(.text)
    __rt_SIGPVFN_inner                       0x00002371   Thumb Code    14  defsig_pvfn_inner.o(.text)
    __rt_heap_escrow                         0x000023a1   Thumb Code     2  heapauxmm.o(.text)
    __rt_heap_expand                         0x000023a3   Thumb Code     6  heapauxmm.o(.text)
    std::terminate()                         0x000023a9   Thumb Code    26  arm_exceptions_terminate.o(.text)
    __cxa_get_globals                        0x000023cb   Thumb Code    62  arm_exceptions_globs.o(.text)
    _sys_exit                                0x00002415   Thumb Code     8  sys_exit.o(.text)
    __rt_ctype_table                         0x00002421   Thumb Code    16  rt_ctype_table.o(.text)
    __rt_locale                              0x00002431   Thumb Code     8  rt_locale.o(.text)
    __rt_eh_globals_addr                     0x00002439   Thumb Code     8  rt_eh_globals_addr.o(.text)
    _printf_fp_infnan                        0x00002441   Thumb Code   112  _printf_fp_infnan.o(.text)
    _btod_etento                             0x000024c1   Thumb Code   216  bigflt0.o(.text)
    abort                                    0x0000259d   Thumb Code    22  abort.o(.text)
    __default_signal_display                 0x000025b3   Thumb Code    50  defsig_general.o(.text)
    __rt_SIGRTRED_inner                      0x000025e5   Thumb Code    14  defsig_rtred_inner.o(.text)
    __rt_SIGRTMEM_inner                      0x00002619   Thumb Code    22  defsig_rtmem_inner.o(.text)
    __ARM_exceptions_buffer_init             0x00002669   Thumb Code    18  arm_exceptions_mem.o(.text)
    __ARM_exceptions_buffer_allocate         0x0000267b   Thumb Code    22  arm_exceptions_mem.o(.text)
    __ARM_exceptions_buffer_free             0x00002691   Thumb Code    20  arm_exceptions_mem.o(.text)
    _ttywrch                                 0x000026a5   Thumb Code    14  sys_wrch.o(.text)
    __I$use$semihosting                      0x000026b3   Thumb Code     0  use_no_semi.o(.text)
    __use_no_semihosting_swi                 0x000026b3   Thumb Code     2  use_no_semi.o(.text)
    __rt_SIGABRT                             0x000026b5   Thumb Code    14  defsig_abrt_outer.o(.text)
    __semihosting_library_function           0x000026b5   Thumb Code     0  indicate_semi.o(.text)
    __rt_SIGABRT_inner                       0x000026c5   Thumb Code    14  defsig_abrt_inner.o(.text)
    _btod_d2e                                0x000026f5   Thumb Code    62  btod.o(CL$$btod_d2e)
    _d2e_denorm_low                          0x00002733   Thumb Code    70  btod.o(CL$$btod_d2e_denorm_low)
    _d2e_norm_op1                            0x00002779   Thumb Code    96  btod.o(CL$$btod_d2e_norm_op1)
    __btod_div_common                        0x000027d9   Thumb Code   696  btod.o(CL$$btod_div_common)
    _e2e                                     0x00002b11   Thumb Code   198  btod.o(CL$$btod_e2e)
    _btod_ediv                               0x00002bd7   Thumb Code    40  btod.o(CL$$btod_ediv)
    _btod_emul                               0x00002bff   Thumb Code    40  btod.o(CL$$btod_emul)
    __btod_mult_common                       0x00002c27   Thumb Code   580  btod.o(CL$$btod_mult_common)
    main                                     0x00002e6b   Thumb Code    16  retarget.o(i.$Sub$$main)
    NVIC_SetVector                           0x00002e7d   Thumb Code    58  cmsis_nvic.o(i.NVIC_SetVector)
    SystemCoreClockUpdate                    0x00002ebd   Thumb Code   696  system_lpc407x_8x_177x_8x.o(i.SystemCoreClockUpdate)
    SystemInit                               0x00003191   Thumb Code   220  system_lpc407x_8x_177x_8x.o(i.SystemInit)
    sdram_init()                             0x0000327d   Thumb Code   216  sdram.o(i._Z10sdram_initv)
    adjust_timing()                          0x000034e9   Thumb Code    76  sdram.o(i._Z13adjust_timingv)
    jsPrsdAndRlsd(btnId_t)                   0x000035c5   Thumb Code    90  main.o(i._Z13jsPrsdAndRlsd7btnId_t)
    swap_double_buffers()                    0x00003645   Thumb Code    34  main.o(i._Z19swap_double_buffersv)
    init_double_buffering()                  0x00003671   Thumb Code    22  main.o(i._Z21init_double_bufferingv)
    EaLcdBoard::eepromRead(unsigned char*, unsigned short, unsigned short) 0x000039ef   Thumb Code   126  ealcdboard.o(i._ZN10EaLcdBoard10eepromReadEPhtt)
    EaLcdBoard::execPinSet(char*, unsigned)  0x00003a6d   Thumb Code   190  ealcdboard.o(i._ZN10EaLcdBoard10execPinSetEPcj)
    EaLcdBoard::getInitSeq(char*, int)       0x00003b49   Thumb Code    82  ealcdboard.o(i._ZN10EaLcdBoard10getInitSeqEPci)
    EaLcdBoard::execSeqCtrl(char*, unsigned) 0x00003ba1   Thumb Code   132  ealcdboard.o(i._ZN10EaLcdBoard11execSeqCtrlEPcj)
    EaLcdBoard::set5VSignal(bool)            0x00003c25   Thumb Code    32  ealcdboard.o(i._ZN10EaLcdBoard11set5VSignalEb)
    EaLcdBoard::setLsStates(unsigned short, unsigned char*, unsigned char) 0x00003c45   Thumb Code    62  ealcdboard.o(i._ZN10EaLcdBoard11setLsStatesEtPhh)
    EaLcdBoard::checkVersion(char*, unsigned) 0x00003c83   Thumb Code    34  ealcdboard.o(i._ZN10EaLcdBoard12checkVersionEPcj)
    EaLcdBoard::getLcdConfig(LcdController::Config*) 0x00003ca5   Thumb Code   214  ealcdboard.o(i._ZN10EaLcdBoard12getLcdConfigEPN13LcdController6ConfigE)
    EaLcdBoard::set3V3Signal(bool)           0x00003d81   Thumb Code    32  ealcdboard.o(i._ZN10EaLcdBoard12set3V3SignalEb)
    EaLcdBoard::setFrameBuffer(unsigned)     0x00003da1   Thumb Code    68  ealcdboard.o(i._ZN10EaLcdBoard14setFrameBufferEj)
    EaLcdBoard::parseInitString(char*, LcdController::Config*) 0x00003de5   Thumb Code   190  ealcdboard.o(i._ZN10EaLcdBoard15parseInitStringEPcPN13LcdController6ConfigE)
    EaLcdBoard::pca9532_setLeds(unsigned short, unsigned short) 0x00003ea3   Thumb Code    44  ealcdboard.o(i._ZN10EaLcdBoard15pca9532_setLedsEtt)
    EaLcdBoard::setBacklightContrast(unsigned) 0x00003ecf   Thumb Code    46  ealcdboard.o(i._ZN10EaLcdBoard20setBacklightContrastEj)
    EaLcdBoard::pca9532_setBlink0Duty(unsigned char) 0x00003efd   Thumb Code    54  ealcdboard.o(i._ZN10EaLcdBoard21pca9532_setBlink0DutyEh)
    EaLcdBoard::pca9532_setBlink0Leds(unsigned short) 0x00003f33   Thumb Code    24  ealcdboard.o(i._ZN10EaLcdBoard21pca9532_setBlink0LedsEt)
    EaLcdBoard::setDisplayEnableSignal(bool) 0x00003f4b   Thumb Code    32  ealcdboard.o(i._ZN10EaLcdBoard22setDisplayEnableSignalEb)
    EaLcdBoard::pca9532_setBlink0Period(unsigned char) 0x00003f6b   Thumb Code    34  ealcdboard.o(i._ZN10EaLcdBoard23pca9532_setBlink0PeriodEh)
    EaLcdBoard::open(LcdController::Config*, char*) 0x00003f8d   Thumb Code    70  ealcdboard.o(i._ZN10EaLcdBoard4openEPN13LcdController6ConfigEPc)
    EaLcdBoard::setLeds()                    0x00003fd9   Thumb Code   108  ealcdboard.o(i._ZN10EaLcdBoard7setLedsEv)
    EaLcdBoard::getStore(EaLcdBoard::store_t*) 0x00004045   Thumb Code    40  ealcdboard.o(i._ZN10EaLcdBoard8getStoreEPNS_7store_tE)
    EaLcdBoard::execDelay(char*, unsigned)   0x0000406d   Thumb Code    30  ealcdboard.o(i._ZN10EaLcdBoard9execDelayEPcj)
    EaLcdBoard::EaLcdBoard(PinName, PinName) 0x0000408d   Thumb Code    64  ealcdboard.o(i._ZN10EaLcdBoardC1E7PinNameS0_)
    EaLcdBoard::EaLcdBoard__sub_object(PinName, PinName) 0x0000408d   Thumb Code     0  ealcdboard.o(i._ZN10EaLcdBoardC1E7PinNameS0_)
    Adafruit_GFX::fillCircle(short, short, short, unsigned short) 0x000040d1   Thumb Code    64  adafruit_gfx.o(i._ZN12Adafruit_GFX10fillCircleEssst)
    Adafruit_GFX::setTextColor(unsigned short, unsigned short) 0x00004111   Thumb Code     6  adafruit_gfx.o(i._ZN12Adafruit_GFX12setTextColorEtt)
    Adafruit_GFX::drawFastVLine(short, short, short, unsigned short) 0x00004117   Thumb Code    46  adafruit_gfx.o(i._ZN12Adafruit_GFX13drawFastVLineEssst)
    Adafruit_GFX::fillCircleHelper(short, short, short, unsigned char, short, unsigned short) 0x00004145   Thumb Code   246  adafruit_gfx.o(i._ZN12Adafruit_GFX16fillCircleHelperEssshst)
    Adafruit_GFX::width()                    0x0000423b   Thumb Code     8  adafruit_gfx.o(i._ZN12Adafruit_GFX5widthEv)
    Adafruit_GFX::write(unsigned char)       0x00004243   Thumb Code   122  adafruit_gfx.o(i._ZN12Adafruit_GFX5writeEh)
    Adafruit_GFX::height()                   0x000042bd   Thumb Code     8  adafruit_gfx.o(i._ZN12Adafruit_GFX6heightEv)
    Adafruit_GFX::drawChar(short, short, unsigned char, unsigned short, unsigned short, unsigned char) 0x000042c5   Thumb Code   256  adafruit_gfx.o(i._ZN12Adafruit_GFX8drawCharEsshtth)
    Adafruit_GFX::drawLine(short, short, short, short, unsigned short) 0x000043c9   Thumb Code   220  adafruit_gfx.o(i._ZN12Adafruit_GFX8drawLineEsssst)
    Adafruit_GFX::fillRect(short, short, short, short, unsigned short) 0x000044a5   Thumb Code    54  adafruit_gfx.o(i._ZN12Adafruit_GFX8fillRectEsssst)
    Adafruit_GFX::setCursor(short, short)    0x000044db   Thumb Code     6  adafruit_gfx.o(i._ZN12Adafruit_GFX9setCursorEss)
    Adafruit_GFX::Adafruit_GFX__sub_object(short, short) 0x000044e1   Thumb Code    42  adafruit_gfx.o(i._ZN12Adafruit_GFXC2Ess)
    ExpandedTimer::ExpandedTimer()           0x00004511   Thumb Code    26  game.o(i._ZN13ExpandedTimerC1Ev)
    ExpandedTimer::ExpandedTimer__sub_object() 0x00004511   Thumb Code     0  game.o(i._ZN13ExpandedTimerC1Ev)
    LcdController::setFrameBuffer(unsigned)  0x00004535   Thumb Code    18  lcdcontroller.o(i._ZN13LcdController14setFrameBufferEj)
    LcdController::getClockDivisor(int)      0x0000454d   Thumb Code    56  lcdcontroller.o(i._ZN13LcdController15getClockDivisorEi)
    LcdController::init(LcdController::Config*) 0x00004589   Thumb Code   436  lcdcontroller.o(i._ZN13LcdController4initEPNS_6ConfigE)
    LcdController::open(LcdController::Config*) 0x00004749   Thumb Code    64  lcdcontroller.o(i._ZN13LcdController4openEPNS_6ConfigE)
    LcdController::Config::Config(int, int, int, int, int, int, int, int, bool, bool, bool, bool, int, LcdController::BitsPerPixel, int, LcdController::LcdPanel, bool) 0x00004791   Thumb Code    96  display.o(i._ZN13LcdController6ConfigC1EiiiiiiiibbbbiNS_12BitsPerPixelEiNS_8LcdPanelEb)
    LcdController::Config::Config__sub_object(int, int, int, int, int, int, int, int, bool, bool, bool, bool, int, LcdController::BitsPerPixel, int, LcdController::LcdPanel, bool) 0x00004791   Thumb Code     0  display.o(i._ZN13LcdController6ConfigC1EiiiiiiiibbbbiNS_12BitsPerPixelEiNS_8LcdPanelEb)
    LcdController::setPower(bool)            0x000047f1   Thumb Code    62  lcdcontroller.o(i._ZN13LcdController8setPowerEb)
    LcdController::pinConfig()               0x00004835   Thumb Code   342  lcdcontroller.o(i._ZN13LcdController9pinConfigEv)
    LcdController::LcdController()           0x00004991   Thumb Code     6  lcdcontroller.o(i._ZN13LcdControllerC1Ev)
    LcdController::LcdController__sub_object() 0x00004991   Thumb Code     0  lcdcontroller.o(i._ZN13LcdControllerC1Ev)
    EaLcdBoardGPIO::set5VSignal(bool)        0x00004997   Thumb Code    32  ealcdboardgpio.o(i._ZN14EaLcdBoardGPIO11set5VSignalEb)
    EaLcdBoardGPIO::set3V3Signal(bool)       0x000049b7   Thumb Code    32  ealcdboardgpio.o(i._ZN14EaLcdBoardGPIO12set3V3SignalEb)
    EaLcdBoardGPIO::setWriteProtect(bool)    0x000049d7   Thumb Code     2  ealcdboardgpio.o(i._ZN14EaLcdBoardGPIO15setWriteProtectEb)
    EaLcdBoardGPIO::setBacklightContrast(unsigned) 0x000049d9   Thumb Code    78  ealcdboardgpio.o(i._ZN14EaLcdBoardGPIO20setBacklightContrastEj)
    EaLcdBoardGPIO::setDisplayEnableSignal(bool) 0x00004a35   Thumb Code    46  ealcdboardgpio.o(i._ZN14EaLcdBoardGPIO22setDisplayEnableSignalEb)
    EaLcdBoardGPIO::EaLcdBoardGPIO(PinName, PinName) 0x00004a6d   Thumb Code   150  ealcdboardgpio.o(i._ZN14EaLcdBoardGPIOC1E7PinNameS0_)
    EaLcdBoardGPIO::EaLcdBoardGPIO__sub_object(PinName, PinName) 0x00004a6d   Thumb Code     0  ealcdboardgpio.o(i._ZN14EaLcdBoardGPIOC1E7PinNameS0_)
    Cue::setPosition(Vector)                 0x00004b09   Thumb Code    16  cue.o(i._ZN3Cue11setPositionE6Vector)
    Cue::setStrength(float)                  0x00004b19   Thumb Code     6  cue.o(i._ZN3Cue11setStrengthEf)
    Cue::draw(Display*, Shot*, Vector)       0x00004b21   Thumb Code   412  cue.o(i._ZN3Cue4drawEP7DisplayP4Shot6Vector)
    Cue::setAngle(float)                     0x00004cd1   Thumb Code     6  cue.o(i._ZN3Cue8setAngleEf)
    Cue::Cue()                               0x00004cd9   Thumb Code    36  cue.o(i._ZN3CueC1Ev)
    Cue::Cue__sub_object()                   0x00004cd9   Thumb Code     0  cue.o(i._ZN3CueC1Ev)
    Cue::~Cue()                              0x00004d05   Thumb Code     2  cue.o(i._ZN3CueD1Ev)
    Cue::~Cue__sub_object()                  0x00004d05   Thumb Code     0  cue.o(i._ZN3CueD1Ev)
    Ball::resetSpeed()                       0x00004d09   Thumb Code    22  ball.o(i._ZN4Ball10resetSpeedEv)
    Ball::addPosition(Vector*)               0x00004d25   Thumb Code    18  ball.o(i._ZN4Ball11addPositionEP6Vector)
    Ball::getPosition()                      0x00004d37   Thumb Code    10  ball.o(i._ZN4Ball11getPositionEv)
    Ball::rotateSpeed(float)                 0x00004d41   Thumb Code    30  ball.o(i._ZN4Ball11rotateSpeedEf)
    Ball::setPosition(Vector*)               0x00004d5f   Thumb Code    18  ball.o(i._ZN4Ball11setPositionEP6Vector)
    Ball::tradeXSpeed(Ball*)                 0x00004d71   Thumb Code    96  ball.o(i._ZN4Ball11tradeXSpeedEPS_)
    Ball::addXPosition(float)                0x00004dd1   Thumb Code    46  ball.o(i._ZN4Ball12addXPositionEf)
    Ball::addYPosition(float)                0x00004e05   Thumb Code    46  ball.o(i._ZN4Ball12addYPositionEf)
    Ball::getXPosition()                     0x00004e39   Thumb Code    14  ball.o(i._ZN4Ball12getXPositionEv)
    Ball::getZPosition()                     0x00004e47   Thumb Code    14  ball.o(i._ZN4Ball12getZPositionEv)
    Ball::setXPosition(float)                0x00004e55   Thumb Code    30  ball.o(i._ZN4Ball12setXPositionEf)
    Ball::setYPosition(float)                0x00004e73   Thumb Code    30  ball.o(i._ZN4Ball12setYPositionEf)
    Ball::subXPosition(float)                0x00004e91   Thumb Code    46  ball.o(i._ZN4Ball12subXPositionEf)
    Ball::subYPosition(float)                0x00004ec5   Thumb Code    46  ball.o(i._ZN4Ball12subYPositionEf)
    Ball::blackPosition()                    0x00004ef9   Thumb Code    28  ball.o(i._ZN4Ball13blackPositionEv)
    Ball::reverseXSpeed()                    0x00004f1d   Thumb Code    30  ball.o(i._ZN4Ball13reverseXSpeedEv)
    Ball::reverseZSpeed()                    0x00004f3b   Thumb Code    30  ball.o(i._ZN4Ball13reverseZSpeedEv)
    Ball::whitePosition()                    0x00004f59   Thumb Code    28  ball.o(i._ZN4Ball13whitePositionEv)
    Ball::calculateSpeedAngle()              0x00004f7d   Thumb Code    30  ball.o(i._ZN4Ball19calculateSpeedAngleEv)
    Ball::draw(Display*, unsigned short)     0x00004f9b   Thumb Code    64  ball.o(i._ZN4Ball4drawEP7Displayt)
    Ball::kill()                             0x00004fdb   Thumb Code     6  ball.o(i._ZN4Ball4killEv)
    Ball::inGame()                           0x00004fe1   Thumb Code     6  ball.o(i._ZN4Ball6inGameEv)
    Ball::getSpeed()                         0x00004fe7   Thumb Code    10  ball.o(i._ZN4Ball8getSpeedEv)
    Ball::isMoving()                         0x00004ff1   Thumb Code    92  ball.o(i._ZN4Ball8isMovingEv)
    Ball::setSpeed(Vector*)                  0x00005055   Thumb Code    18  ball.o(i._ZN4Ball8setSpeedEP6Vector)
    Ball::getNumber()                        0x00005067   Thumb Code     6  ball.o(i._ZN4Ball9getNumberEv)
    Ball::getXSpeed()                        0x0000506d   Thumb Code    14  ball.o(i._ZN4Ball9getXSpeedEv)
    Ball::getYSpeed()                        0x0000507b   Thumb Code    14  ball.o(i._ZN4Ball9getYSpeedEv)
    Ball::putInGame()                        0x00005089   Thumb Code     6  ball.o(i._ZN4Ball9putInGameEv)
    Ball::Ball()                             0x0000508f   Thumb Code    30  game.o(i._ZN4BallC1Ev)
    Ball::Ball__sub_object()                 0x0000508f   Thumb Code     0  game.o(i._ZN4BallC1Ev)
    Game::processEnd()                       0x000050ad   Thumb Code   252  game.o(i._ZN4Game10processEndEv)
    Game::processKey(btnId_t)                0x000051a9   Thumb Code    28  game.o(i._ZN4Game10processKeyE7btnId_t)
    Game::updateShot()                       0x000051c5   Thumb Code    46  game.o(i._ZN4Game10updateShotEv)
    Game::executeShot()                      0x000051f3   Thumb Code    28  game.o(i._ZN4Game11executeShotEv)
    Game::illegalMove(int)                   0x0000520f   Thumb Code    64  game.o(i._ZN4Game11illegalMoveEi)
    Game::setStrength(float)                 0x0000524f   Thumb Code    28  game.o(i._ZN4Game11setStrengthEf)
    Game::applyPhysics()                     0x0000526d   Thumb Code   166  game.o(i._ZN4Game12applyPhysicsEv)
    Game::checkCueBall()                     0x00005325   Thumb Code    28  game.o(i._ZN4Game12checkCueBallEv)
    Game::setDirection(btnId_t)              0x00005341   Thumb Code   152  game.o(i._ZN4Game12setDirectionE7btnId_t)
    Game::drawSelection()                    0x000053d9   Thumb Code    20  game.o(i._ZN4Game13drawSelectionEv)
    Game::initializeGame()                   0x000053ed   Thumb Code   114  game.o(i._ZN4Game14initializeGameEv)
    Game::killPlayerBall(int)                0x0000545f   Thumb Code   100  game.o(i._ZN4Game14killPlayerBallEi)
    Game::processEndGame(int)                0x000054c3   Thumb Code    24  game.o(i._ZN4Game14processEndGameEi)
    Game::respawnCueBall()                   0x000054dd   Thumb Code    94  game.o(i._ZN4Game14respawnCueBallEv)
    Game::updateBallCount()                  0x00005541   Thumb Code    60  game.o(i._ZN4Game15updateBallCountEv)
    Game::physicsInterface()                 0x0000557d   Thumb Code   178  game.o(i._ZN4Game16physicsInterfaceEv)
    Game::draw()                             0x0000562f   Thumb Code    56  game.o(i._ZN4Game4drawEv)
    Game::loop()                             0x00005667   Thumb Code    44  game.o(i._ZN4Game4loopEv)
    Game::op_id(int)                         0x00005693   Thumb Code    14  game.o(i._ZN4Game5op_idEi)
    Game::isOver()                           0x000056a1   Thumb Code    50  game.o(i._ZN4Game6isOverEv)
    Game::drawShot()                         0x000056d3   Thumb Code    20  game.o(i._ZN4Game8drawShotEv)
    Game::turnEnded()                        0x000056e7   Thumb Code    90  game.o(i._ZN4Game9turnEndedEv)
    Game::Game(Display*)                     0x00005741   Thumb Code   240  game.o(i._ZN4GameC1EP7Display)
    Game::Game__sub_object(Display*)         0x00005741   Thumb Code     0  game.o(i._ZN4GameC1EP7Display)
    Game::~Game()                            0x00005831   Thumb Code    30  main.o(i._ZN4GameD1Ev)
    Game::~Game__sub_object()                0x00005831   Thumb Code     0  main.o(i._ZN4GameD1Ev)
    Shot::getStr()                           0x0000584f   Thumb Code     6  shot.o(i._ZN4Shot6getStrEv)
    Shot::setStr(float)                      0x00005855   Thumb Code     6  shot.o(i._ZN4Shot6setStrEf)
    Shot::addAngle(float)                    0x0000585d   Thumb Code    66  shot.o(i._ZN4Shot8addAngleEf)
    Shot::getAngle()                         0x000058ad   Thumb Code     6  shot.o(i._ZN4Shot8getAngleEv)
    Shot::setAngle(float)                    0x000058b3   Thumb Code     6  shot.o(i._ZN4Shot8setAngleEf)
    Shot::Shot()                             0x000058b9   Thumb Code    18  shot.o(i._ZN4ShotC1Ev)
    Shot::Shot__sub_object()                 0x000058b9   Thumb Code     0  shot.o(i._ZN4ShotC1Ev)
    mbed::DigitalOut::DigitalOut(PinName)    0x000058d5   Thumb Code    26  ealcdboardgpio.o(i._ZN4mbed10DigitalOutC1E7PinName)
    mbed::DigitalOut::DigitalOut__sub_object(PinName) 0x000058d5   Thumb Code     0  ealcdboardgpio.o(i._ZN4mbed10DigitalOutC1E7PinName)
    mbed::DigitalOut::operator =(int)        0x000058f1   Thumb Code    64  ealcdboardgpio.o(i._ZN4mbed10DigitalOutaSEi)
    mbed::FileHandle::flen()                 0x0000594d   Thumb Code    58  filelike.o(i._ZN4mbed10FileHandle4flenEv)
    mbed::mbed_set_unbuffered_stream(std::__FILE*) 0x00005987   Thumb Code    14  retarget.o(i._ZN4mbed26mbed_set_unbuffered_streamEPSt6__FILE)
    mbed::I2C::read(int, char*, int, bool)   0x00005995   Thumb Code    58  i2c.o(i._ZN4mbed3I2C4readEiPcib)
    mbed::I2C::write(int, const char*, int, bool) 0x000059cf   Thumb Code    58  i2c.o(i._ZN4mbed3I2C5writeEiPKcib)
    mbed::I2C::aquire()                      0x00005a09   Thumb Code    26  i2c.o(i._ZN4mbed3I2C6aquireEv)
    mbed::I2C::frequency(int)                0x00005a29   Thumb Code    22  i2c.o(i._ZN4mbed3I2C9frequencyEi)
    mbed::I2C::I2C(PinName, PinName)         0x00005a45   Thumb Code    34  i2c.o(i._ZN4mbed3I2CC1E7PinNameS1_)
    mbed::I2C::I2C__sub_object(PinName, PinName) 0x00005a45   Thumb Code     0  i2c.o(i._ZN4mbed3I2CC1E7PinNameS1_)
    mbed::Stream::flen()                     0x00005a71   Thumb Code     6  stream.o(i._ZN4mbed6Stream4flenEv)
    mbed::Stream::close()                    0x00005a77   Thumb Code     6  stream.o(i._ZN4mbed6Stream5closeEv)
    mbed::Stream::lseek(long, int)           0x00005a7d   Thumb Code     6  stream.o(i._ZN4mbed6Stream5lseekEli)
    mbed::Stream::write(const void*, unsigned) 0x00005a83   Thumb Code    48  stream.o(i._ZN4mbed6Stream5writeEPKvj)
    mbed::Stream::isatty()                   0x00005ab3   Thumb Code     6  stream.o(i._ZN4mbed6Stream6isattyEv)
    mbed::Stream::printf(const char*, ...)   0x00005ab9   Thumb Code    40  stream.o(i._ZN4mbed6Stream6printfEPKcz)
    mbed::Stream::Stream__sub_object(const char*) 0x00005ae1   Thumb Code    58  stream.o(i._ZN4mbed6StreamC2EPKc)
    mbed::Ethernet::link()                   0x00005b29   Thumb Code    10  ethernet.o(i._ZN4mbed8Ethernet4linkEv)
    mbed::Ethernet::read(char*, int)         0x00005b33   Thumb Code    18  ethernet.o(i._ZN4mbed8Ethernet4readEPci)
    mbed::Ethernet::send()                   0x00005b45   Thumb Code    10  ethernet.o(i._ZN4mbed8Ethernet4sendEv)
    mbed::Ethernet::write(const char*, int)  0x00005b4f   Thumb Code    18  ethernet.o(i._ZN4mbed8Ethernet5writeEPKci)
    mbed::Ethernet::receive()                0x00005b61   Thumb Code    10  ethernet.o(i._ZN4mbed8Ethernet7receiveEv)
    mbed::Ethernet::Ethernet()               0x00005b6d   Thumb Code    16  ethernet.o(i._ZN4mbed8EthernetC1Ev)
    mbed::Ethernet::Ethernet__sub_object()   0x00005b6d   Thumb Code     0  ethernet.o(i._ZN4mbed8EthernetC1Ev)
    mbed::Ethernet::~Ethernet()              0x00005b81   Thumb Code    16  ethernet.o(i._ZN4mbed8EthernetD1Ev)
    mbed::Ethernet::~Ethernet__sub_object()  0x00005b81   Thumb Code     0  ethernet.o(i._ZN4mbed8EthernetD1Ev)
    mbed::FileBase::getPathType()            0x00005b95   Thumb Code     6  filebase.o(i._ZN4mbed8FileBase11getPathTypeEv)
    mbed::FileBase::lookup(const char*, unsigned) 0x00005b9d   Thumb Code    52  filebase.o(i._ZN4mbed8FileBase6lookupEPKcj)
    mbed::FileBase::FileBase(const char*, mbed::PathType) 0x00005bd5   Thumb Code    32  filebase.o(i._ZN4mbed8FileBaseC1EPKcNS_8PathTypeE)
    mbed::FileBase::FileBase__sub_object(const char*, mbed::PathType) 0x00005bd5   Thumb Code     0  filebase.o(i._ZN4mbed8FileBaseC1EPKcNS_8PathTypeE)
    mbed::FileLike::FileLike__sub_object(const char*) 0x00005bfd   Thumb Code    34  filelike.o(i._ZN4mbed8FileLikeC2EPKc)
    mbed::FilePath::fileSystem()             0x00005c29   Thumb Code    20  filepath.o(i._ZN4mbed8FilePath10fileSystemEv)
    mbed::FilePath::isFileSystem()           0x00005c3d   Thumb Code    28  filepath.o(i._ZN4mbed8FilePath12isFileSystemEv)
    mbed::FilePath::file()                   0x00005c59   Thumb Code    30  filepath.o(i._ZN4mbed8FilePath4fileEv)
    mbed::FilePath::exists()                 0x00005c77   Thumb Code    14  filepath.o(i._ZN4mbed8FilePath6existsEv)
    mbed::FilePath::isFile()                 0x00005c85   Thumb Code    28  filepath.o(i._ZN4mbed8FilePath6isFileEv)
    mbed::FilePath::fileName()               0x00005ca1   Thumb Code     6  filepath.o(i._ZN4mbed8FilePath8fileNameEv)
    mbed::FilePath::FilePath(const char*)    0x00005ca7   Thumb Code    86  filepath.o(i._ZN4mbed8FilePathC1EPKc)
    mbed::FilePath::FilePath__sub_object(const char*) 0x00005ca7   Thumb Code     0  filepath.o(i._ZN4mbed8FilePathC1EPKc)
    mbed::DigitalIn::DigitalIn(PinName)      0x00005cfd   Thumb Code    26  main.o(i._ZN4mbed9DigitalInC1E7PinName)
    mbed::DigitalIn::DigitalIn__sub_object(PinName) 0x00005cfd   Thumb Code     0  main.o(i._ZN4mbed9DigitalInC1E7PinName)
    GFXFb::fillScreen(unsigned short)        0x00005d17   Thumb Code    38  gfxfb.o(i._ZN5GFXFb10fillScreenEt)
    GFXFb::drawFastVLine(short, short, short, unsigned short) 0x00005d3d   Thumb Code   104  gfxfb.o(i._ZN5GFXFb13drawFastVLineEssst)
    GFXFb::drawPixel(short, short, unsigned short) 0x00005da5   Thumb Code    70  gfxfb.o(i._ZN5GFXFb9drawPixelEsst)
    GFXFb::GFXFb(unsigned short, unsigned short, unsigned short*) 0x00005ded   Thumb Code    36  gfxfb.o(i._ZN5GFXFbC1EttPt)
    GFXFb::GFXFb__sub_object(unsigned short, unsigned short, unsigned short*) 0x00005ded   Thumb Code     0  gfxfb.o(i._ZN5GFXFbC1EttPt)
    LM75B::open()                            0x00005e15   Thumb Code    30  lm75b.o(i._ZN5LM75B4openEv)
    LM75B::LM75B(PinName, PinName, LM75B::Address, int) 0x00005e33   Thumb Code    44  lm75b.o(i._ZN5LM75BC1E7PinNameS0_NS_7AddressEi)
    LM75B::LM75B__sub_object(PinName, PinName, LM75B::Address, int) 0x00005e33   Thumb Code     0  lm75b.o(i._ZN5LM75BC1E7PinNameS0_NS_7AddressEi)
    Table::nearestHole(Vector)               0x00005e61   Thumb Code   188  table.o(i._ZN5Table11nearestHoleE6Vector)
    Table::getHoleCenter(int)                0x00005f2d   Thumb Code    14  table.o(i._ZN5Table13getHoleCenterEi)
    Table::draw(Display*)                    0x00005f3b   Thumb Code   360  table.o(i._ZN5Table4drawEP7Display)
    Table::holeArea(Vector)                  0x000060a5   Thumb Code   144  table.o(i._ZN5Table8holeAreaE6Vector)
    Table::Table()                           0x00006155   Thumb Code   116  table.o(i._ZN5TableC1Ev)
    Table::Table__sub_object()               0x00006155   Thumb Code     0  table.o(i._ZN5TableC1Ev)
    Player::Player(int, int)                 0x000061d9   Thumb Code    12  game.o(i._ZN6PlayerC1Eii)
    Player::Player__sub_object(int, int)     0x000061d9   Thumb Code     0  game.o(i._ZN6PlayerC1Eii)
    Player::Player()                         0x000061e5   Thumb Code    16  game.o(i._ZN6PlayerC1Ev)
    Player::Player__sub_object()             0x000061e5   Thumb Code     0  game.o(i._ZN6PlayerC1Ev)
    Vector::sqrDistance(Vector*)             0x000061f5   Thumb Code    46  vector.o(i._ZN6Vector11sqrDistanceEPS_)
    Vector::terminalPoint(Vector*)           0x00006223   Thumb Code    68  vector.o(i._ZN6Vector13terminalPointEPS_)
    Vector::calculateAngle(Vector*)          0x00006267   Thumb Code    90  vector.o(i._ZN6Vector14calculateAngleEPS_)
    Vector::vectorRotation(float)            0x000062c1   Thumb Code    94  vector.o(i._ZN6Vector14vectorRotationEf)
    Vector::getX()                           0x0000631f   Thumb Code     6  vector.o(i._ZN6Vector4getXEv)
    Vector::getZ()                           0x00006325   Thumb Code     6  vector.o(i._ZN6Vector4getZEv)
    Vector::setX(float)                      0x0000632b   Thumb Code     6  vector.o(i._ZN6Vector4setXEf)
    Vector::setZ(float)                      0x00006331   Thumb Code     6  vector.o(i._ZN6Vector4setZEf)
    Vector::addVector(Vector*)               0x00006337   Thumb Code    34  vector.o(i._ZN6Vector9addVectorEPS_)
    Vector::mulVector(Vector*)               0x00006359   Thumb Code    34  vector.o(i._ZN6Vector9mulVectorEPS_)
    Vector::setVector(Vector*)               0x0000637b   Thumb Code    26  vector.o(i._ZN6Vector9setVectorEPS_)
    Vector::setVector(float, float)          0x00006395   Thumb Code    10  vector.o(i._ZN6Vector9setVectorEff)
    Vector::subVector(Vector*)               0x0000639f   Thumb Code    34  vector.o(i._ZN6Vector9subVectorEPS_)
    Vector::Vector(float, float)             0x000063c1   Thumb Code    10  vector.o(i._ZN6VectorC1Eff)
    Vector::Vector__sub_object(float, float) 0x000063c1   Thumb Code     0  vector.o(i._ZN6VectorC1Eff)
    Vector::Vector()                         0x000063cd   Thumb Code    18  vector.o(i._ZN6VectorC1Ev)
    Vector::Vector__sub_object()             0x000063cd   Thumb Code     0  vector.o(i._ZN6VectorC1Ev)
    Display::theDisplay()                    0x000063e5   Thumb Code    50  display.o(i._ZN7Display10theDisplayEv)
    Display::_putc(int)                      0x00006421   Thumb Code    20  display.o(i._ZN7Display5_putcEi)
    Display::Display()                       0x00006435   Thumb Code   272  display.o(i._ZN7DisplayC1Ev)
    Display::Display__sub_object()           0x00006435   Thumb Code     0  display.o(i._ZN7DisplayC1Ev)
    MMA7455::MMA7455(PinName, PinName)       0x00006585   Thumb Code    36  mma7455.o(i._ZN7MMA7455C1E7PinNameS0_)
    MMA7455::MMA7455__sub_object(PinName, PinName) 0x00006585   Thumb Code     0  mma7455.o(i._ZN7MMA7455C1E7PinNameS0_)
    Physics::energyLoss(Ball*)               0x000065a9   Thumb Code    58  physics.o(i._ZN7Physics10energyLossEP4Ball)
    Physics::hitCueBall(Ball*, Shot*)        0x000065e9   Thumb Code   276  physics.o(i._ZN7Physics10hitCueBallEP4BallP4Shot)
    Physics::insertIndex(int*, int, int, int) 0x0000670d   Thumb Code    32  physics.o(i._ZN7Physics11insertIndexEPiiii)
    Physics::getCollision()                  0x0000672d   Thumb Code    14  physics.o(i._ZN7Physics12getCollisionEv)
    Physics::ballCollision(Ball*, Ball*)     0x0000673b   Thumb Code   132  physics.o(i._ZN7Physics13ballCollisionEP4BallS1_)
    Physics::hasCollisions()                 0x000067bf   Thumb Code    14  physics.o(i._ZN7Physics13hasCollisionsEv)
    Physics::insertDistance(float*, int, float) 0x000067cd   Thumb Code    74  physics.o(i._ZN7Physics14insertDistanceEPfif)
    Physics::tableCollision(Table*, Ball*)   0x00006817   Thumb Code    96  physics.o(i._ZN7Physics14tableCollisionEP5TableP4Ball)
    Physics::fixBallCollision(Ball*, Ball*)  0x00006877   Thumb Code   104  physics.o(i._ZN7Physics16fixBallCollisionEP4BallS1_)
    Physics::respawnCollision(Table*, BallArray*, bool) 0x000068df   Thumb Code   254  physics.o(i._ZN7Physics16respawnCollisionEP5TableP9BallArrayb)
    Physics::fixTableCollision(Ball*)        0x000069dd   Thumb Code    80  physics.o(i._ZN7Physics17fixTableCollisionEP4Ball)
    Physics::getCollisionOrder(BallArray*, int) 0x00006a35   Thumb Code   152  physics.o(i._ZN7Physics17getCollisionOrderEP9BallArrayi)
    Physics::holeAreaCollision(Table*, Ball*) 0x00006acd   Thumb Code   122  physics.o(i._ZN7Physics17holeAreaCollisionEP5TableP4Ball)
    Physics::checkBallCollision(Ball*, Ball*, float*) 0x00006b49   Thumb Code   106  physics.o(i._ZN7Physics18checkBallCollisionEP4BallS1_Pf)
    Physics::checkHoleCollision(Table*, Ball*, int) 0x00006bb9   Thumb Code   102  physics.o(i._ZN7Physics18checkHoleCollisionEP5TableP4Balli)
    Physics::checkTableCollision(Table*, Ball*) 0x00006c25   Thumb Code   216  physics.o(i._ZN7Physics19checkTableCollisionEP5TableP4Ball)
    Physics::Friction(Ball*)                 0x00006d15   Thumb Code   184  physics.o(i._ZN7Physics8FrictionEP4Ball)
    Physics::movement(Ball*)                 0x00006dd1   Thumb Code    44  physics.o(i._ZN7Physics8movementEP4Ball)
    Physics::Physics()                       0x00006dfd   Thumb Code    20  physics.o(i._ZN7PhysicsC1Ev)
    Physics::Physics__sub_object()           0x00006dfd   Thumb Code     0  physics.o(i._ZN7PhysicsC1Ev)
    Physics::~Physics()                      0x00006e11   Thumb Code    14  physics.o(i._ZN7PhysicsD1Ev)
    Physics::~Physics__sub_object()          0x00006e11   Thumb Code     0  physics.o(i._ZN7PhysicsD1Ev)
    BallArray::getWhitePosition()            0x00006e1f   Thumb Code    42  ball.o(i._ZN9BallArray16getWhitePositionEv)
    BallArray::initializeBallArray(int)      0x00006e49   Thumb Code   590  ball.o(i._ZN9BallArray19initializeBallArrayEi)
    BallArray::getBall(int)                  0x000070d5   Thumb Code    12  ball.o(i._ZN9BallArray7getBallEi)
    BallArray::getSize()                     0x000070e1   Thumb Code     8  ball.o(i._ZN9BallArray7getSizeEv)
    BallArray::BallArray()                   0x000070e9   Thumb Code    20  game.o(i._ZN9BallArrayC1Ev)
    BallArray::BallArray__sub_object()       0x000070e9   Thumb Code     0  game.o(i._ZN9BallArrayC1Ev)
    Interface::playerTurn(int)               0x00007101   Thumb Code    40  interface.o(i._ZN9Interface10playerTurnEi)
    Interface::setCueBall(Ball*)             0x0000714d   Thumb Code     4  interface.o(i._ZN9Interface10setCueBallEP4Ball)
    Interface::setBlackBall(Ball*)           0x00007151   Thumb Code     4  interface.o(i._ZN9Interface12setBlackBallEP4Ball)
    Interface::setBallsArray(BallArray*)     0x00007155   Thumb Code     4  interface.o(i._ZN9Interface13setBallsArrayEP9BallArray)
    Interface::drawIllegalMove(int)          0x00007159   Thumb Code    52  interface.o(i._ZN9Interface15drawIllegalMoveEi)
    Interface::drawShotStrength(float)       0x00007239   Thumb Code    56  interface.o(i._ZN9Interface16drawShotStrengthEf)
    Interface::init()                        0x00007285   Thumb Code    38  interface.o(i._ZN9Interface4initEv)
    Interface::drawCue(Shot*, bool)          0x000072ab   Thumb Code   114  interface.o(i._ZN9Interface7drawCueEP4Shotb)
    Interface::setTable(Table*)              0x0000731d   Thumb Code     4  interface.o(i._ZN9Interface8setTableEP5Table)
    Interface::drawBalls()                   0x00007321   Thumb Code   112  interface.o(i._ZN9Interface9drawBallsEv)
    Interface::drawTable()                   0x00007391   Thumb Code    14  interface.o(i._ZN9Interface9drawTableEv)
    Interface::playerWon(int)                0x000073a1   Thumb Code    44  interface.o(i._ZN9Interface9playerWonEi)
    Interface::Interface(Display*)           0x00007431   Thumb Code    20  interface.o(i._ZN9InterfaceC1EP7Display)
    Interface::Interface__sub_object(Display*) 0x00007431   Thumb Code     0  interface.o(i._ZN9InterfaceC1EP7Display)
    Interface::Interface()                   0x00007445   Thumb Code    16  interface.o(i._ZN9InterfaceC1Ev)
    Interface::Interface__sub_object()       0x00007445   Thumb Code     0  interface.o(i._ZN9InterfaceC1Ev)
    Interface::~Interface()                  0x00007455   Thumb Code    16  interface.o(i._ZN9InterfaceD1Ev)
    Interface::~Interface__sub_object()      0x00007455   Thumb Code     0  interface.o(i._ZN9InterfaceD1Ev)
    std::cos(float)                          0x00007465   Thumb Code    24  vector.o(i._ZSt3cosf)
    std::sin(float)                          0x0000747d   Thumb Code    24  vector.o(i._ZSt3sinf)
    operator new(unsigned)                   0x00007495   Thumb Code    34  new.o(i._Znwj)
    __ARM_fpclassify                         0x000074bd   Thumb Code    48  fpclassify.o(i.__ARM_fpclassify)
    __ARM_fpclassifyf                        0x000074ed   Thumb Code    38  fpclassifyf.o(i.__ARM_fpclassifyf)
    __aeabi_vec_ctor_nocookie_nodtor         0x00007513   Thumb Code    36  aeabi_vec_ctor_nocookie_nodtor.o(i.__aeabi_vec_ctor_nocookie_nodtor)
    __cxa_guard_acquire                      0x00007537   Thumb Code    16  cxa_guard_acquire.o(i.__cxa_guard_acquire)
    __cxa_pure_virtual                       0x00007547   Thumb Code     6  pure_virt.o(i.__cxa_pure_virtual)
    __hardfp_atan2f                          0x0000754d   Thumb Code   502  atan2f.o(i.__hardfp_atan2f)
    __hardfp_cos                             0x000077a1   Thumb Code   180  cos.o(i.__hardfp_cos)
    __hardfp_cosf                            0x00007869   Thumb Code   280  cosf.o(i.__hardfp_cosf)
    __hardfp_sin                             0x000079b9   Thumb Code   180  sin.o(i.__hardfp_sin)
    __hardfp_sinf                            0x00007a81   Thumb Code   344  sinf.o(i.__hardfp_sinf)
    __ieee754_rem_pio2                       0x00007c11   Thumb Code   938  rred.o(i.__ieee754_rem_pio2)
    __kernel_cos                             0x00008049   Thumb Code   322  cos_i.o(i.__kernel_cos)
    __kernel_poly                            0x000081b9   Thumb Code   248  poly.o(i.__kernel_poly)
    __kernel_sin                             0x000082b1   Thumb Code   280  sin_i.o(i.__kernel_sin)
    __mathlib_dbl_infnan                     0x000083e1   Thumb Code    20  dunder.o(i.__mathlib_dbl_infnan)
    __mathlib_dbl_invalid                    0x000083f9   Thumb Code    24  dunder.o(i.__mathlib_dbl_invalid)
    __mathlib_dbl_underflow                  0x00008419   Thumb Code    24  dunder.o(i.__mathlib_dbl_underflow)
    __mathlib_flt_infnan                     0x00008439   Thumb Code     6  funder.o(i.__mathlib_flt_infnan)
    __mathlib_flt_infnan2                    0x0000843f   Thumb Code     6  funder.o(i.__mathlib_flt_infnan2)
    __mathlib_flt_invalid                    0x00008445   Thumb Code    10  funder.o(i.__mathlib_flt_invalid)
    __mathlib_flt_underflow                  0x00008455   Thumb Code    10  funder.o(i.__mathlib_flt_underflow)
    __mathlib_rredf2                         0x00008465   Thumb Code   316  rredf.o(i.__mathlib_rredf2)
    __reserved_stack_size                    0x000085b9   Thumb Code     6  sdram.o(i.__reserved_stack_size)
